
pro1-Ultrasonic_internal_flash.elf:     file format elf32-littlearm

Sections:
Idx Name          Size      VMA       LMA       File off  Algn
  0 .isr_vector   0000018c  08000000  08000000  00001000  2**0
                  CONTENTS, ALLOC, LOAD, READONLY, DATA
  1 .text         00001940  08000190  08000190  00001190  2**4
                  CONTENTS, ALLOC, LOAD, READONLY, CODE
  2 .rodata       0000009c  08001ad0  08001ad0  00002ad0  2**2
                  CONTENTS, ALLOC, LOAD, READONLY, DATA
  3 .ARM.extab    00000000  08001b6c  08001b6c  00003054  2**0
                  CONTENTS, READONLY
  4 .ARM          00000008  08001b6c  08001b6c  00002b6c  2**2
                  CONTENTS, ALLOC, LOAD, READONLY, DATA
  5 .preinit_array 00000000  08001b74  08001b74  00003054  2**0
                  CONTENTS, ALLOC, LOAD, DATA
  6 .init_array   00000004  08001b74  08001b74  00002b74  2**2
                  CONTENTS, ALLOC, LOAD, READONLY, DATA
  7 .fini_array   00000004  08001b78  08001b78  00002b78  2**2
                  CONTENTS, ALLOC, LOAD, READONLY, DATA
  8 .data         00000054  20000000  08001b7c  00003000  2**2
                  CONTENTS, ALLOC, LOAD, DATA
  9 .sram2        00000000  10000000  10000000  00003054  2**0
                  CONTENTS
 10 .bss          00000190  20000054  20000054  00003054  2**2
                  ALLOC
 11 ._user_heap_stack 00000604  200001e4  200001e4  00003054  2**0
                  ALLOC
 12 .ARM.attributes 0000002a  00000000  00000000  00003054  2**0
                  CONTENTS, READONLY
 13 .debug_info   00001bdf  00000000  00000000  0000307e  2**0
                  CONTENTS, READONLY, DEBUGGING, OCTETS
 14 .debug_abbrev 00000541  00000000  00000000  00004c5d  2**0
                  CONTENTS, READONLY, DEBUGGING, OCTETS
 15 .debug_aranges 000001b8  00000000  00000000  000051a0  2**3
                  CONTENTS, READONLY, DEBUGGING, OCTETS
 16 .debug_rnglists 0000013f  00000000  00000000  00005358  2**0
                  CONTENTS, READONLY, DEBUGGING, OCTETS
 17 .debug_macro  0000277f  00000000  00000000  00005497  2**0
                  CONTENTS, READONLY, DEBUGGING, OCTETS
 18 .debug_line   000023ec  00000000  00000000  00007c16  2**0
                  CONTENTS, READONLY, DEBUGGING, OCTETS
 19 .debug_str    0000983d  00000000  00000000  0000a002  2**0
                  CONTENTS, READONLY, DEBUGGING, OCTETS
 20 .comment      00000043  00000000  00000000  0001383f  2**0
                  CONTENTS, READONLY
 21 .debug_frame  00000b4c  00000000  00000000  00013884  2**2
                  CONTENTS, READONLY, DEBUGGING, OCTETS
 22 .debug_line_str 00000070  00000000  00000000  000143d0  2**0
                  CONTENTS, READONLY, DEBUGGING, OCTETS

Disassembly of section .text:

08000190 <__do_global_dtors_aux>:
 8000190:	b510      	push	{r4, lr}
 8000192:	4c05      	ldr	r4, [pc, #20]	@ (80001a8 <__do_global_dtors_aux+0x18>)
 8000194:	7823      	ldrb	r3, [r4, #0]
 8000196:	b933      	cbnz	r3, 80001a6 <__do_global_dtors_aux+0x16>
 8000198:	4b04      	ldr	r3, [pc, #16]	@ (80001ac <__do_global_dtors_aux+0x1c>)
 800019a:	b113      	cbz	r3, 80001a2 <__do_global_dtors_aux+0x12>
 800019c:	4804      	ldr	r0, [pc, #16]	@ (80001b0 <__do_global_dtors_aux+0x20>)
 800019e:	f3af 8000 	nop.w
 80001a2:	2301      	movs	r3, #1
 80001a4:	7023      	strb	r3, [r4, #0]
 80001a6:	bd10      	pop	{r4, pc}
 80001a8:	20000054 	.word	0x20000054
 80001ac:	00000000 	.word	0x00000000
 80001b0:	08001ab8 	.word	0x08001ab8

080001b4 <frame_dummy>:
 80001b4:	b508      	push	{r3, lr}
 80001b6:	4b03      	ldr	r3, [pc, #12]	@ (80001c4 <frame_dummy+0x10>)
 80001b8:	b11b      	cbz	r3, 80001c2 <frame_dummy+0xe>
 80001ba:	4903      	ldr	r1, [pc, #12]	@ (80001c8 <frame_dummy+0x14>)
 80001bc:	4803      	ldr	r0, [pc, #12]	@ (80001cc <frame_dummy+0x18>)
 80001be:	f3af 8000 	nop.w
 80001c2:	bd08      	pop	{r3, pc}
 80001c4:	00000000 	.word	0x00000000
 80001c8:	20000058 	.word	0x20000058
 80001cc:	08001ab8 	.word	0x08001ab8

080001d0 <strlen>:
 80001d0:	4603      	mov	r3, r0
 80001d2:	f813 2b01 	ldrb.w	r2, [r3], #1
 80001d6:	2a00      	cmp	r2, #0
 80001d8:	d1fb      	bne.n	80001d2 <strlen+0x2>
 80001da:	1a18      	subs	r0, r3, r0
 80001dc:	3801      	subs	r0, #1
 80001de:	4770      	bx	lr

080001e0 <memchr>:
 80001e0:	f001 01ff 	and.w	r1, r1, #255	@ 0xff
 80001e4:	2a10      	cmp	r2, #16
 80001e6:	db2b      	blt.n	8000240 <memchr+0x60>
 80001e8:	f010 0f07 	tst.w	r0, #7
 80001ec:	d008      	beq.n	8000200 <memchr+0x20>
 80001ee:	f810 3b01 	ldrb.w	r3, [r0], #1
 80001f2:	3a01      	subs	r2, #1
 80001f4:	428b      	cmp	r3, r1
 80001f6:	d02d      	beq.n	8000254 <memchr+0x74>
 80001f8:	f010 0f07 	tst.w	r0, #7
 80001fc:	b342      	cbz	r2, 8000250 <memchr+0x70>
 80001fe:	d1f6      	bne.n	80001ee <memchr+0xe>
 8000200:	b4f0      	push	{r4, r5, r6, r7}
 8000202:	ea41 2101 	orr.w	r1, r1, r1, lsl #8
 8000206:	ea41 4101 	orr.w	r1, r1, r1, lsl #16
 800020a:	f022 0407 	bic.w	r4, r2, #7
 800020e:	f07f 0700 	mvns.w	r7, #0
 8000212:	2300      	movs	r3, #0
 8000214:	e8f0 5602 	ldrd	r5, r6, [r0], #8
 8000218:	3c08      	subs	r4, #8
 800021a:	ea85 0501 	eor.w	r5, r5, r1
 800021e:	ea86 0601 	eor.w	r6, r6, r1
 8000222:	fa85 f547 	uadd8	r5, r5, r7
 8000226:	faa3 f587 	sel	r5, r3, r7
 800022a:	fa86 f647 	uadd8	r6, r6, r7
 800022e:	faa5 f687 	sel	r6, r5, r7
 8000232:	b98e      	cbnz	r6, 8000258 <memchr+0x78>
 8000234:	d1ee      	bne.n	8000214 <memchr+0x34>
 8000236:	bcf0      	pop	{r4, r5, r6, r7}
 8000238:	f001 01ff 	and.w	r1, r1, #255	@ 0xff
 800023c:	f002 0207 	and.w	r2, r2, #7
 8000240:	b132      	cbz	r2, 8000250 <memchr+0x70>
 8000242:	f810 3b01 	ldrb.w	r3, [r0], #1
 8000246:	3a01      	subs	r2, #1
 8000248:	ea83 0301 	eor.w	r3, r3, r1
 800024c:	b113      	cbz	r3, 8000254 <memchr+0x74>
 800024e:	d1f8      	bne.n	8000242 <memchr+0x62>
 8000250:	2000      	movs	r0, #0
 8000252:	4770      	bx	lr
 8000254:	3801      	subs	r0, #1
 8000256:	4770      	bx	lr
 8000258:	2d00      	cmp	r5, #0
 800025a:	bf06      	itte	eq
 800025c:	4635      	moveq	r5, r6
 800025e:	3803      	subeq	r0, #3
 8000260:	3807      	subne	r0, #7
 8000262:	f015 0f01 	tst.w	r5, #1
 8000266:	d107      	bne.n	8000278 <memchr+0x98>
 8000268:	3001      	adds	r0, #1
 800026a:	f415 7f80 	tst.w	r5, #256	@ 0x100
 800026e:	bf02      	ittt	eq
 8000270:	3001      	addeq	r0, #1
 8000272:	f415 3fc0 	tsteq.w	r5, #98304	@ 0x18000
 8000276:	3001      	addeq	r0, #1
 8000278:	bcf0      	pop	{r4, r5, r6, r7}
 800027a:	3801      	subs	r0, #1
 800027c:	4770      	bx	lr
 800027e:	bf00      	nop

08000280 <delay_us>:
/* USART handle */
static USART_Handle_t huart2;

/* SysTick microsecond delay (assumes 80MHz) */
void delay_us(uint32_t us)
{
 8000280:	b480      	push	{r7}
 8000282:	b083      	sub	sp, #12
 8000284:	af00      	add	r7, sp, #0
 8000286:	6078      	str	r0, [r7, #4]
    SysTick->LOAD = (80U * us);
 8000288:	490d      	ldr	r1, [pc, #52]	@ (80002c0 <delay_us+0x40>)
 800028a:	687a      	ldr	r2, [r7, #4]
 800028c:	4613      	mov	r3, r2
 800028e:	009b      	lsls	r3, r3, #2
 8000290:	4413      	add	r3, r2
 8000292:	011b      	lsls	r3, r3, #4
 8000294:	604b      	str	r3, [r1, #4]
    SysTick->VAL  = 0;
 8000296:	4b0a      	ldr	r3, [pc, #40]	@ (80002c0 <delay_us+0x40>)
 8000298:	2200      	movs	r2, #0
 800029a:	609a      	str	r2, [r3, #8]
    SysTick->CTRL = 5;
 800029c:	4b08      	ldr	r3, [pc, #32]	@ (80002c0 <delay_us+0x40>)
 800029e:	2205      	movs	r2, #5
 80002a0:	601a      	str	r2, [r3, #0]
    while(!(SysTick->CTRL & (1U << 16)));
 80002a2:	bf00      	nop
 80002a4:	4b06      	ldr	r3, [pc, #24]	@ (80002c0 <delay_us+0x40>)
 80002a6:	681b      	ldr	r3, [r3, #0]
 80002a8:	f403 3380 	and.w	r3, r3, #65536	@ 0x10000
 80002ac:	2b00      	cmp	r3, #0
 80002ae:	d0f9      	beq.n	80002a4 <delay_us+0x24>
    SysTick->CTRL = 0;
 80002b0:	4b03      	ldr	r3, [pc, #12]	@ (80002c0 <delay_us+0x40>)
 80002b2:	2200      	movs	r2, #0
 80002b4:	601a      	str	r2, [r3, #0]
}
 80002b6:	bf00      	nop
 80002b8:	370c      	adds	r7, #12
 80002ba:	46bd      	mov	sp, r7
 80002bc:	bc80      	pop	{r7}
 80002be:	4770      	bx	lr
 80002c0:	e000e010 	.word	0xe000e010

080002c4 <delay_ms>:
void delay_ms(uint32_t ms) { while(ms--) delay_us(1000); }
 80002c4:	b580      	push	{r7, lr}
 80002c6:	b082      	sub	sp, #8
 80002c8:	af00      	add	r7, sp, #0
 80002ca:	6078      	str	r0, [r7, #4]
 80002cc:	e003      	b.n	80002d6 <delay_ms+0x12>
 80002ce:	f44f 707a 	mov.w	r0, #1000	@ 0x3e8
 80002d2:	f7ff ffd5 	bl	8000280 <delay_us>
 80002d6:	687b      	ldr	r3, [r7, #4]
 80002d8:	1e5a      	subs	r2, r3, #1
 80002da:	607a      	str	r2, [r7, #4]
 80002dc:	2b00      	cmp	r3, #0
 80002de:	d1f6      	bne.n	80002ce <delay_ms+0xa>
 80002e0:	bf00      	nop
 80002e2:	bf00      	nop
 80002e4:	3708      	adds	r7, #8
 80002e6:	46bd      	mov	sp, r7
 80002e8:	bd80      	pop	{r7, pc}
	...

080002ec <UART2_Init_using_driver>:

/* UART init using driver + GPIO driver */
void UART2_Init_using_driver(void)
{
 80002ec:	b580      	push	{r7, lr}
 80002ee:	b084      	sub	sp, #16
 80002f0:	af00      	add	r7, sp, #0
    GPIO_Handle_t gpio;

    GPIO_PeriClockControl(GPIOA, ENABLE);
 80002f2:	2101      	movs	r1, #1
 80002f4:	f04f 4090 	mov.w	r0, #1207959552	@ 0x48000000
 80002f8:	f000 fad0 	bl	800089c <GPIO_PeriClockControl>

    gpio.pGPIOx = GPIOA;
 80002fc:	f04f 4390 	mov.w	r3, #1207959552	@ 0x48000000
 8000300:	607b      	str	r3, [r7, #4]
    gpio.GPIO_PinConfig.GPIO_PinMode = GPIO_MODE_ALTFN;
 8000302:	2302      	movs	r3, #2
 8000304:	727b      	strb	r3, [r7, #9]
    gpio.GPIO_PinConfig.GPIO_PinAltFunMode = 7;
 8000306:	2307      	movs	r3, #7
 8000308:	737b      	strb	r3, [r7, #13]
    gpio.GPIO_PinConfig.GPIO_PinOPType = GPIO_OP_TYPE_PP;
 800030a:	2300      	movs	r3, #0
 800030c:	733b      	strb	r3, [r7, #12]
    gpio.GPIO_PinConfig.GPIO_PinPuPdControl = GPIO_NO_PUPD;
 800030e:	2300      	movs	r3, #0
 8000310:	72fb      	strb	r3, [r7, #11]
    gpio.GPIO_PinConfig.GPIO_PinSpeed = GPIO_HIGH_SPEED;
 8000312:	2302      	movs	r3, #2
 8000314:	72bb      	strb	r3, [r7, #10]

    gpio.GPIO_PinConfig.GPIO_PinNumber = GPIO_PIN_NO_2; GPIO_Init(&gpio); /* PA2 TX */
 8000316:	2302      	movs	r3, #2
 8000318:	723b      	strb	r3, [r7, #8]
 800031a:	1d3b      	adds	r3, r7, #4
 800031c:	4618      	mov	r0, r3
 800031e:	f000 fb8b 	bl	8000a38 <GPIO_Init>
    gpio.GPIO_PinConfig.GPIO_PinNumber = GPIO_PIN_NO_3; GPIO_Init(&gpio); /* PA3 RX */
 8000322:	2303      	movs	r3, #3
 8000324:	723b      	strb	r3, [r7, #8]
 8000326:	1d3b      	adds	r3, r7, #4
 8000328:	4618      	mov	r0, r3
 800032a:	f000 fb85 	bl	8000a38 <GPIO_Init>

    huart2.pUSARTx = USART2;
 800032e:	4b0e      	ldr	r3, [pc, #56]	@ (8000368 <UART2_Init_using_driver+0x7c>)
 8000330:	4a0e      	ldr	r2, [pc, #56]	@ (800036c <UART2_Init_using_driver+0x80>)
 8000332:	601a      	str	r2, [r3, #0]
    huart2.USART_Config.USART_Mode = USART_MODE_TXRX;
 8000334:	4b0c      	ldr	r3, [pc, #48]	@ (8000368 <UART2_Init_using_driver+0x7c>)
 8000336:	2202      	movs	r2, #2
 8000338:	711a      	strb	r2, [r3, #4]
    huart2.USART_Config.USART_Baud = USART_STD_BAUD_9600;
 800033a:	4b0b      	ldr	r3, [pc, #44]	@ (8000368 <UART2_Init_using_driver+0x7c>)
 800033c:	f44f 5216 	mov.w	r2, #9600	@ 0x2580
 8000340:	609a      	str	r2, [r3, #8]
    huart2.USART_Config.USART_NoOfStopBits = USART_STOPBITS_1;
 8000342:	4b09      	ldr	r3, [pc, #36]	@ (8000368 <UART2_Init_using_driver+0x7c>)
 8000344:	2200      	movs	r2, #0
 8000346:	731a      	strb	r2, [r3, #12]
    huart2.USART_Config.USART_WordLength = USART_WORDLEN_8BITS;
 8000348:	4b07      	ldr	r3, [pc, #28]	@ (8000368 <UART2_Init_using_driver+0x7c>)
 800034a:	2200      	movs	r2, #0
 800034c:	735a      	strb	r2, [r3, #13]
    huart2.USART_Config.USART_ParityControl = USART_PARITY_DISABLE;
 800034e:	4b06      	ldr	r3, [pc, #24]	@ (8000368 <UART2_Init_using_driver+0x7c>)
 8000350:	2200      	movs	r2, #0
 8000352:	739a      	strb	r2, [r3, #14]
    huart2.USART_Config.USART_HWFlowControl = USART_HW_FLOW_CTRL_NONE;
 8000354:	4b04      	ldr	r3, [pc, #16]	@ (8000368 <UART2_Init_using_driver+0x7c>)
 8000356:	2200      	movs	r2, #0
 8000358:	73da      	strb	r2, [r3, #15]

    USART_Init(&huart2);
 800035a:	4803      	ldr	r0, [pc, #12]	@ (8000368 <UART2_Init_using_driver+0x7c>)
 800035c:	f000 fe0c 	bl	8000f78 <USART_Init>
}
 8000360:	bf00      	nop
 8000362:	3710      	adds	r7, #16
 8000364:	46bd      	mov	sp, r7
 8000366:	bd80      	pop	{r7, pc}
 8000368:	20000070 	.word	0x20000070
 800036c:	40004400 	.word	0x40004400

08000370 <UART2_SendString>:

/* helper send */
void UART2_SendString(const char *s)
{
 8000370:	b580      	push	{r7, lr}
 8000372:	b084      	sub	sp, #16
 8000374:	af00      	add	r7, sp, #0
 8000376:	6078      	str	r0, [r7, #4]
    size_t len = strlen(s);
 8000378:	6878      	ldr	r0, [r7, #4]
 800037a:	f7ff ff29 	bl	80001d0 <strlen>
 800037e:	60f8      	str	r0, [r7, #12]
    if(len) USART_SendData(&huart2, (uint8_t*)s, (uint32_t)len);
 8000380:	68fb      	ldr	r3, [r7, #12]
 8000382:	2b00      	cmp	r3, #0
 8000384:	d004      	beq.n	8000390 <UART2_SendString+0x20>
 8000386:	68fa      	ldr	r2, [r7, #12]
 8000388:	6879      	ldr	r1, [r7, #4]
 800038a:	4803      	ldr	r0, [pc, #12]	@ (8000398 <UART2_SendString+0x28>)
 800038c:	f000 fe8a 	bl	80010a4 <USART_SendData>
}
 8000390:	bf00      	nop
 8000392:	3710      	adds	r7, #16
 8000394:	46bd      	mov	sp, r7
 8000396:	bd80      	pop	{r7, pc}
 8000398:	20000070 	.word	0x20000070

0800039c <App_GPIO_Init>:

/* App GPIO init (TRIG, ECHO, BUTTON) */
void App_GPIO_Init(void)
{
 800039c:	b580      	push	{r7, lr}
 800039e:	b084      	sub	sp, #16
 80003a0:	af00      	add	r7, sp, #0
    GPIO_Handle_t h;
    GPIO_PeriClockControl(GPIOA, ENABLE);
 80003a2:	2101      	movs	r1, #1
 80003a4:	f04f 4090 	mov.w	r0, #1207959552	@ 0x48000000
 80003a8:	f000 fa78 	bl	800089c <GPIO_PeriClockControl>
    GPIO_PeriClockControl(GPIOC, ENABLE);
 80003ac:	2101      	movs	r1, #1
 80003ae:	481b      	ldr	r0, [pc, #108]	@ (800041c <App_GPIO_Init+0x80>)
 80003b0:	f000 fa74 	bl	800089c <GPIO_PeriClockControl>
    /* TRIG PA9 output */
    h.pGPIOx = GPIOA;
 80003b4:	f04f 4390 	mov.w	r3, #1207959552	@ 0x48000000
 80003b8:	607b      	str	r3, [r7, #4]
    h.GPIO_PinConfig.GPIO_PinNumber = TRIG_PIN_NO;
 80003ba:	2309      	movs	r3, #9
 80003bc:	723b      	strb	r3, [r7, #8]
    h.GPIO_PinConfig.GPIO_PinMode = GPIO_MODE_OUT;
 80003be:	2301      	movs	r3, #1
 80003c0:	727b      	strb	r3, [r7, #9]
    h.GPIO_PinConfig.GPIO_PinOPType = GPIO_OP_TYPE_PP;
 80003c2:	2300      	movs	r3, #0
 80003c4:	733b      	strb	r3, [r7, #12]
    h.GPIO_PinConfig.GPIO_PinPuPdControl = GPIO_NO_PUPD;
 80003c6:	2300      	movs	r3, #0
 80003c8:	72fb      	strb	r3, [r7, #11]
    h.GPIO_PinConfig.GPIO_PinSpeed = GPIO_HIGH_SPEED;
 80003ca:	2302      	movs	r3, #2
 80003cc:	72bb      	strb	r3, [r7, #10]
    GPIO_Init(&h);
 80003ce:	1d3b      	adds	r3, r7, #4
 80003d0:	4618      	mov	r0, r3
 80003d2:	f000 fb31 	bl	8000a38 <GPIO_Init>

    /* ECHO PA8 AF1 (TIM1) */
    h.pGPIOx = GPIOA;
 80003d6:	f04f 4390 	mov.w	r3, #1207959552	@ 0x48000000
 80003da:	607b      	str	r3, [r7, #4]
    h.GPIO_PinConfig.GPIO_PinNumber = ECHO_PIN_NO;
 80003dc:	2308      	movs	r3, #8
 80003de:	723b      	strb	r3, [r7, #8]
    h.GPIO_PinConfig.GPIO_PinMode = GPIO_MODE_ALTFN;
 80003e0:	2302      	movs	r3, #2
 80003e2:	727b      	strb	r3, [r7, #9]
    h.GPIO_PinConfig.GPIO_PinAltFunMode = 1; /* AF1 */
 80003e4:	2301      	movs	r3, #1
 80003e6:	737b      	strb	r3, [r7, #13]
    h.GPIO_PinConfig.GPIO_PinOPType = GPIO_OP_TYPE_PP;
 80003e8:	2300      	movs	r3, #0
 80003ea:	733b      	strb	r3, [r7, #12]
    h.GPIO_PinConfig.GPIO_PinPuPdControl = GPIO_NO_PUPD;
 80003ec:	2300      	movs	r3, #0
 80003ee:	72fb      	strb	r3, [r7, #11]
    h.GPIO_PinConfig.GPIO_PinSpeed = GPIO_HIGH_SPEED;
 80003f0:	2302      	movs	r3, #2
 80003f2:	72bb      	strb	r3, [r7, #10]
    GPIO_Init(&h);
 80003f4:	1d3b      	adds	r3, r7, #4
 80003f6:	4618      	mov	r0, r3
 80003f8:	f000 fb1e 	bl	8000a38 <GPIO_Init>

    /* BUTTON PC13 input pull-up */
    h.pGPIOx = GPIOC;
 80003fc:	4b07      	ldr	r3, [pc, #28]	@ (800041c <App_GPIO_Init+0x80>)
 80003fe:	607b      	str	r3, [r7, #4]
    h.GPIO_PinConfig.GPIO_PinNumber = BUTTON_PIN_NO;
 8000400:	230d      	movs	r3, #13
 8000402:	723b      	strb	r3, [r7, #8]
    h.GPIO_PinConfig.GPIO_PinMode = GPIO_MODE_IN;
 8000404:	2300      	movs	r3, #0
 8000406:	727b      	strb	r3, [r7, #9]
    h.GPIO_PinConfig.GPIO_PinPuPdControl = GPIO_PIN_PU;
 8000408:	2301      	movs	r3, #1
 800040a:	72fb      	strb	r3, [r7, #11]
    GPIO_Init(&h);
 800040c:	1d3b      	adds	r3, r7, #4
 800040e:	4618      	mov	r0, r3
 8000410:	f000 fb12 	bl	8000a38 <GPIO_Init>
}
 8000414:	bf00      	nop
 8000416:	3710      	adds	r7, #16
 8000418:	46bd      	mov	sp, r7
 800041a:	bd80      	pop	{r7, pc}
 800041c:	48000800 	.word	0x48000800

08000420 <TIM1_InputCapture_Init>:

/* TIM1 Input-capture init */
void TIM1_InputCapture_Init(void)
{
 8000420:	b480      	push	{r7}
 8000422:	af00      	add	r7, sp, #0
    RCC->APB2ENR |= RCC_APB2ENR_TIM1EN;
 8000424:	4b17      	ldr	r3, [pc, #92]	@ (8000484 <TIM1_InputCapture_Init+0x64>)
 8000426:	6e1b      	ldr	r3, [r3, #96]	@ 0x60
 8000428:	4a16      	ldr	r2, [pc, #88]	@ (8000484 <TIM1_InputCapture_Init+0x64>)
 800042a:	f443 6300 	orr.w	r3, r3, #2048	@ 0x800
 800042e:	6613      	str	r3, [r2, #96]	@ 0x60
    TIM1->PSC = 80U - 1U; /* 1 MHz */
 8000430:	4b15      	ldr	r3, [pc, #84]	@ (8000488 <TIM1_InputCapture_Init+0x68>)
 8000432:	224f      	movs	r2, #79	@ 0x4f
 8000434:	629a      	str	r2, [r3, #40]	@ 0x28
    TIM1->ARR = 0xFFFFU;
 8000436:	4b14      	ldr	r3, [pc, #80]	@ (8000488 <TIM1_InputCapture_Init+0x68>)
 8000438:	f64f 72ff 	movw	r2, #65535	@ 0xffff
 800043c:	62da      	str	r2, [r3, #44]	@ 0x2c
    TIM1->CCMR1 &= ~0xFFU;
 800043e:	4b12      	ldr	r3, [pc, #72]	@ (8000488 <TIM1_InputCapture_Init+0x68>)
 8000440:	699b      	ldr	r3, [r3, #24]
 8000442:	4a11      	ldr	r2, [pc, #68]	@ (8000488 <TIM1_InputCapture_Init+0x68>)
 8000444:	f023 03ff 	bic.w	r3, r3, #255	@ 0xff
 8000448:	6193      	str	r3, [r2, #24]
    TIM1->CCMR1 |= 1U; /* CC1 mapped to TI1 */
 800044a:	4b0f      	ldr	r3, [pc, #60]	@ (8000488 <TIM1_InputCapture_Init+0x68>)
 800044c:	699b      	ldr	r3, [r3, #24]
 800044e:	4a0e      	ldr	r2, [pc, #56]	@ (8000488 <TIM1_InputCapture_Init+0x68>)
 8000450:	f043 0301 	orr.w	r3, r3, #1
 8000454:	6193      	str	r3, [r2, #24]
    TIM1->CCER &= ~(1U << 1); /* rising */
 8000456:	4b0c      	ldr	r3, [pc, #48]	@ (8000488 <TIM1_InputCapture_Init+0x68>)
 8000458:	6a1b      	ldr	r3, [r3, #32]
 800045a:	4a0b      	ldr	r2, [pc, #44]	@ (8000488 <TIM1_InputCapture_Init+0x68>)
 800045c:	f023 0302 	bic.w	r3, r3, #2
 8000460:	6213      	str	r3, [r2, #32]
    TIM1->CCER |= (1U << 0);  /* enable */
 8000462:	4b09      	ldr	r3, [pc, #36]	@ (8000488 <TIM1_InputCapture_Init+0x68>)
 8000464:	6a1b      	ldr	r3, [r3, #32]
 8000466:	4a08      	ldr	r2, [pc, #32]	@ (8000488 <TIM1_InputCapture_Init+0x68>)
 8000468:	f043 0301 	orr.w	r3, r3, #1
 800046c:	6213      	str	r3, [r2, #32]
    TIM1->CR1 |= 1U;
 800046e:	4b06      	ldr	r3, [pc, #24]	@ (8000488 <TIM1_InputCapture_Init+0x68>)
 8000470:	681b      	ldr	r3, [r3, #0]
 8000472:	4a05      	ldr	r2, [pc, #20]	@ (8000488 <TIM1_InputCapture_Init+0x68>)
 8000474:	f043 0301 	orr.w	r3, r3, #1
 8000478:	6013      	str	r3, [r2, #0]
}
 800047a:	bf00      	nop
 800047c:	46bd      	mov	sp, r7
 800047e:	bc80      	pop	{r7}
 8000480:	4770      	bx	lr
 8000482:	bf00      	nop
 8000484:	40021000 	.word	0x40021000
 8000488:	40012c00 	.word	0x40012c00

0800048c <Flash_Unlock>:

/* Flash helpers: assumes FLASH wrapper in header */
void Flash_Unlock(void)
{
 800048c:	b480      	push	{r7}
 800048e:	af00      	add	r7, sp, #0
    if(FLASH->CR & (1U << 31)) /* FLASH_CR_LOCK bit ID may vary; if not available ignore */
 8000490:	4b06      	ldr	r3, [pc, #24]	@ (80004ac <Flash_Unlock+0x20>)
 8000492:	691b      	ldr	r3, [r3, #16]
 8000494:	2b00      	cmp	r3, #0
 8000496:	da05      	bge.n	80004a4 <Flash_Unlock+0x18>
    {
        FLASH->KEYR = 0x45670123U;
 8000498:	4b04      	ldr	r3, [pc, #16]	@ (80004ac <Flash_Unlock+0x20>)
 800049a:	4a05      	ldr	r2, [pc, #20]	@ (80004b0 <Flash_Unlock+0x24>)
 800049c:	605a      	str	r2, [r3, #4]
        FLASH->KEYR = 0xCDEF89ABU;
 800049e:	4b03      	ldr	r3, [pc, #12]	@ (80004ac <Flash_Unlock+0x20>)
 80004a0:	4a04      	ldr	r2, [pc, #16]	@ (80004b4 <Flash_Unlock+0x28>)
 80004a2:	605a      	str	r2, [r3, #4]
    }
}
 80004a4:	bf00      	nop
 80004a6:	46bd      	mov	sp, r7
 80004a8:	bc80      	pop	{r7}
 80004aa:	4770      	bx	lr
 80004ac:	08000400 	.word	0x08000400
 80004b0:	45670123 	.word	0x45670123
 80004b4:	cdef89ab 	.word	0xcdef89ab

080004b8 <Flash_Lock>:
void Flash_Lock(void) { FLASH->CR |= (1U<<31); }
 80004b8:	b480      	push	{r7}
 80004ba:	af00      	add	r7, sp, #0
 80004bc:	4b04      	ldr	r3, [pc, #16]	@ (80004d0 <Flash_Lock+0x18>)
 80004be:	691b      	ldr	r3, [r3, #16]
 80004c0:	4a03      	ldr	r2, [pc, #12]	@ (80004d0 <Flash_Lock+0x18>)
 80004c2:	f043 4300 	orr.w	r3, r3, #2147483648	@ 0x80000000
 80004c6:	6113      	str	r3, [r2, #16]
 80004c8:	bf00      	nop
 80004ca:	46bd      	mov	sp, r7
 80004cc:	bc80      	pop	{r7}
 80004ce:	4770      	bx	lr
 80004d0:	08000400 	.word	0x08000400

080004d4 <Flash_EraseSector>:
void Flash_EraseSector(uint8_t sec)
{
 80004d4:	b580      	push	{r7, lr}
 80004d6:	b082      	sub	sp, #8
 80004d8:	af00      	add	r7, sp, #0
 80004da:	4603      	mov	r3, r0
 80004dc:	71fb      	strb	r3, [r7, #7]
    Flash_Unlock();
 80004de:	f7ff ffd5 	bl	800048c <Flash_Unlock>
    FLASH->CR &= ~(0xFFU);
 80004e2:	4b16      	ldr	r3, [pc, #88]	@ (800053c <Flash_EraseSector+0x68>)
 80004e4:	691b      	ldr	r3, [r3, #16]
 80004e6:	4a15      	ldr	r2, [pc, #84]	@ (800053c <Flash_EraseSector+0x68>)
 80004e8:	f023 03ff 	bic.w	r3, r3, #255	@ 0xff
 80004ec:	6113      	str	r3, [r2, #16]
    FLASH->CR |= ((uint32_t)sec << 3); /* PNB pos in your header variant */
 80004ee:	4b13      	ldr	r3, [pc, #76]	@ (800053c <Flash_EraseSector+0x68>)
 80004f0:	691a      	ldr	r2, [r3, #16]
 80004f2:	79fb      	ldrb	r3, [r7, #7]
 80004f4:	00db      	lsls	r3, r3, #3
 80004f6:	4911      	ldr	r1, [pc, #68]	@ (800053c <Flash_EraseSector+0x68>)
 80004f8:	4313      	orrs	r3, r2
 80004fa:	610b      	str	r3, [r1, #16]
    FLASH->CR |= (1U<<1); /* PER */
 80004fc:	4b0f      	ldr	r3, [pc, #60]	@ (800053c <Flash_EraseSector+0x68>)
 80004fe:	691b      	ldr	r3, [r3, #16]
 8000500:	4a0e      	ldr	r2, [pc, #56]	@ (800053c <Flash_EraseSector+0x68>)
 8000502:	f043 0302 	orr.w	r3, r3, #2
 8000506:	6113      	str	r3, [r2, #16]
    FLASH->CR |= (1U<<16); /* START - adjust if different */
 8000508:	4b0c      	ldr	r3, [pc, #48]	@ (800053c <Flash_EraseSector+0x68>)
 800050a:	691b      	ldr	r3, [r3, #16]
 800050c:	4a0b      	ldr	r2, [pc, #44]	@ (800053c <Flash_EraseSector+0x68>)
 800050e:	f443 3380 	orr.w	r3, r3, #65536	@ 0x10000
 8000512:	6113      	str	r3, [r2, #16]
    while (FLASH->SR & (1U<<16)); /* BSY */
 8000514:	bf00      	nop
 8000516:	4b09      	ldr	r3, [pc, #36]	@ (800053c <Flash_EraseSector+0x68>)
 8000518:	68db      	ldr	r3, [r3, #12]
 800051a:	f403 3380 	and.w	r3, r3, #65536	@ 0x10000
 800051e:	2b00      	cmp	r3, #0
 8000520:	d1f9      	bne.n	8000516 <Flash_EraseSector+0x42>
    FLASH->CR &= ~(1U<<1);
 8000522:	4b06      	ldr	r3, [pc, #24]	@ (800053c <Flash_EraseSector+0x68>)
 8000524:	691b      	ldr	r3, [r3, #16]
 8000526:	4a05      	ldr	r2, [pc, #20]	@ (800053c <Flash_EraseSector+0x68>)
 8000528:	f023 0302 	bic.w	r3, r3, #2
 800052c:	6113      	str	r3, [r2, #16]
    Flash_Lock();
 800052e:	f7ff ffc3 	bl	80004b8 <Flash_Lock>
}
 8000532:	bf00      	nop
 8000534:	3708      	adds	r7, #8
 8000536:	46bd      	mov	sp, r7
 8000538:	bd80      	pop	{r7, pc}
 800053a:	bf00      	nop
 800053c:	08000400 	.word	0x08000400

08000540 <Flash_Write64>:
void Flash_Write64(uint32_t addr, uint64_t data)
{
 8000540:	b580      	push	{r7, lr}
 8000542:	b084      	sub	sp, #16
 8000544:	af00      	add	r7, sp, #0
 8000546:	60f8      	str	r0, [r7, #12]
 8000548:	e9c7 2300 	strd	r2, r3, [r7]
    Flash_Unlock();
 800054c:	f7ff ff9e 	bl	800048c <Flash_Unlock>
    FLASH->CR |= (1U<<0); /* PG */
 8000550:	4b0e      	ldr	r3, [pc, #56]	@ (800058c <Flash_Write64+0x4c>)
 8000552:	691b      	ldr	r3, [r3, #16]
 8000554:	4a0d      	ldr	r2, [pc, #52]	@ (800058c <Flash_Write64+0x4c>)
 8000556:	f043 0301 	orr.w	r3, r3, #1
 800055a:	6113      	str	r3, [r2, #16]
    *(volatile uint64_t*)addr = data;
 800055c:	68f9      	ldr	r1, [r7, #12]
 800055e:	e9d7 2300 	ldrd	r2, r3, [r7]
 8000562:	e9c1 2300 	strd	r2, r3, [r1]
    while (FLASH->SR & (1U<<16));
 8000566:	bf00      	nop
 8000568:	4b08      	ldr	r3, [pc, #32]	@ (800058c <Flash_Write64+0x4c>)
 800056a:	68db      	ldr	r3, [r3, #12]
 800056c:	f403 3380 	and.w	r3, r3, #65536	@ 0x10000
 8000570:	2b00      	cmp	r3, #0
 8000572:	d1f9      	bne.n	8000568 <Flash_Write64+0x28>
    FLASH->CR &= ~(1U<<0);
 8000574:	4b05      	ldr	r3, [pc, #20]	@ (800058c <Flash_Write64+0x4c>)
 8000576:	691b      	ldr	r3, [r3, #16]
 8000578:	4a04      	ldr	r2, [pc, #16]	@ (800058c <Flash_Write64+0x4c>)
 800057a:	f023 0301 	bic.w	r3, r3, #1
 800057e:	6113      	str	r3, [r2, #16]
    Flash_Lock();
 8000580:	f7ff ff9a 	bl	80004b8 <Flash_Lock>
}
 8000584:	bf00      	nop
 8000586:	3710      	adds	r7, #16
 8000588:	46bd      	mov	sp, r7
 800058a:	bd80      	pop	{r7, pc}
 800058c:	08000400 	.word	0x08000400

08000590 <Flash_Read32>:
uint32_t Flash_Read32(uint32_t addr) { return *(volatile uint32_t*)addr; }
 8000590:	b480      	push	{r7}
 8000592:	b083      	sub	sp, #12
 8000594:	af00      	add	r7, sp, #0
 8000596:	6078      	str	r0, [r7, #4]
 8000598:	687b      	ldr	r3, [r7, #4]
 800059a:	681b      	ldr	r3, [r3, #0]
 800059c:	4618      	mov	r0, r3
 800059e:	370c      	adds	r7, #12
 80005a0:	46bd      	mov	sp, r7
 80005a2:	bc80      	pop	{r7}
 80005a4:	4770      	bx	lr
	...

080005a8 <Ultrasonic_Measure>:

/* Ultrasonic measure (us -> cm) */
uint32_t Ultrasonic_Measure(void)
{
 80005a8:	b580      	push	{r7, lr}
 80005aa:	b084      	sub	sp, #16
 80005ac:	af00      	add	r7, sp, #0
    uint32_t start = 0, end = 0;
 80005ae:	2300      	movs	r3, #0
 80005b0:	60fb      	str	r3, [r7, #12]
 80005b2:	2300      	movs	r3, #0
 80005b4:	60bb      	str	r3, [r7, #8]
    GPIO_WriteToOutputPin(GPIOA, TRIG_PIN_NO, GPIO_PIN_RESET);
 80005b6:	2200      	movs	r2, #0
 80005b8:	2109      	movs	r1, #9
 80005ba:	f04f 4090 	mov.w	r0, #1207959552	@ 0x48000000
 80005be:	f000 fbed 	bl	8000d9c <GPIO_WriteToOutputPin>
    delay_us(2);
 80005c2:	2002      	movs	r0, #2
 80005c4:	f7ff fe5c 	bl	8000280 <delay_us>
    GPIO_WriteToOutputPin(GPIOA, TRIG_PIN_NO, GPIO_PIN_SET);
 80005c8:	2201      	movs	r2, #1
 80005ca:	2109      	movs	r1, #9
 80005cc:	f04f 4090 	mov.w	r0, #1207959552	@ 0x48000000
 80005d0:	f000 fbe4 	bl	8000d9c <GPIO_WriteToOutputPin>
    delay_us(10);
 80005d4:	200a      	movs	r0, #10
 80005d6:	f7ff fe53 	bl	8000280 <delay_us>
    GPIO_WriteToOutputPin(GPIOA, TRIG_PIN_NO, GPIO_PIN_RESET);
 80005da:	2200      	movs	r2, #0
 80005dc:	2109      	movs	r1, #9
 80005de:	f04f 4090 	mov.w	r0, #1207959552	@ 0x48000000
 80005e2:	f000 fbdb 	bl	8000d9c <GPIO_WriteToOutputPin>

    TIM1->CNT = 0;
 80005e6:	4b27      	ldr	r3, [pc, #156]	@ (8000684 <Ultrasonic_Measure+0xdc>)
 80005e8:	2200      	movs	r2, #0
 80005ea:	625a      	str	r2, [r3, #36]	@ 0x24
    TIM1->CCER &= ~(1U << 1);
 80005ec:	4b25      	ldr	r3, [pc, #148]	@ (8000684 <Ultrasonic_Measure+0xdc>)
 80005ee:	6a1b      	ldr	r3, [r3, #32]
 80005f0:	4a24      	ldr	r2, [pc, #144]	@ (8000684 <Ultrasonic_Measure+0xdc>)
 80005f2:	f023 0302 	bic.w	r3, r3, #2
 80005f6:	6213      	str	r3, [r2, #32]
    TIM1->SR &= ~(1U << 1);
 80005f8:	4b22      	ldr	r3, [pc, #136]	@ (8000684 <Ultrasonic_Measure+0xdc>)
 80005fa:	691b      	ldr	r3, [r3, #16]
 80005fc:	4a21      	ldr	r2, [pc, #132]	@ (8000684 <Ultrasonic_Measure+0xdc>)
 80005fe:	f023 0302 	bic.w	r3, r3, #2
 8000602:	6113      	str	r3, [r2, #16]
    while(!(TIM1->SR & (1U << 1)));
 8000604:	bf00      	nop
 8000606:	4b1f      	ldr	r3, [pc, #124]	@ (8000684 <Ultrasonic_Measure+0xdc>)
 8000608:	691b      	ldr	r3, [r3, #16]
 800060a:	f003 0302 	and.w	r3, r3, #2
 800060e:	2b00      	cmp	r3, #0
 8000610:	d0f9      	beq.n	8000606 <Ultrasonic_Measure+0x5e>
    start = TIM1->CCR1;
 8000612:	4b1c      	ldr	r3, [pc, #112]	@ (8000684 <Ultrasonic_Measure+0xdc>)
 8000614:	6b5b      	ldr	r3, [r3, #52]	@ 0x34
 8000616:	60fb      	str	r3, [r7, #12]
    TIM1->SR &= ~(1U << 1);
 8000618:	4b1a      	ldr	r3, [pc, #104]	@ (8000684 <Ultrasonic_Measure+0xdc>)
 800061a:	691b      	ldr	r3, [r3, #16]
 800061c:	4a19      	ldr	r2, [pc, #100]	@ (8000684 <Ultrasonic_Measure+0xdc>)
 800061e:	f023 0302 	bic.w	r3, r3, #2
 8000622:	6113      	str	r3, [r2, #16]

    TIM1->CCER |= (1U << 1);
 8000624:	4b17      	ldr	r3, [pc, #92]	@ (8000684 <Ultrasonic_Measure+0xdc>)
 8000626:	6a1b      	ldr	r3, [r3, #32]
 8000628:	4a16      	ldr	r2, [pc, #88]	@ (8000684 <Ultrasonic_Measure+0xdc>)
 800062a:	f043 0302 	orr.w	r3, r3, #2
 800062e:	6213      	str	r3, [r2, #32]
    while(!(TIM1->SR & (1U << 1)));
 8000630:	bf00      	nop
 8000632:	4b14      	ldr	r3, [pc, #80]	@ (8000684 <Ultrasonic_Measure+0xdc>)
 8000634:	691b      	ldr	r3, [r3, #16]
 8000636:	f003 0302 	and.w	r3, r3, #2
 800063a:	2b00      	cmp	r3, #0
 800063c:	d0f9      	beq.n	8000632 <Ultrasonic_Measure+0x8a>
    end = TIM1->CCR1;
 800063e:	4b11      	ldr	r3, [pc, #68]	@ (8000684 <Ultrasonic_Measure+0xdc>)
 8000640:	6b5b      	ldr	r3, [r3, #52]	@ 0x34
 8000642:	60bb      	str	r3, [r7, #8]
    TIM1->SR &= ~(1U << 1);
 8000644:	4b0f      	ldr	r3, [pc, #60]	@ (8000684 <Ultrasonic_Measure+0xdc>)
 8000646:	691b      	ldr	r3, [r3, #16]
 8000648:	4a0e      	ldr	r2, [pc, #56]	@ (8000684 <Ultrasonic_Measure+0xdc>)
 800064a:	f023 0302 	bic.w	r3, r3, #2
 800064e:	6113      	str	r3, [r2, #16]

    uint32_t width = (end >= start) ? (end - start) : ((0xFFFFU - start) + end);
 8000650:	68ba      	ldr	r2, [r7, #8]
 8000652:	68fb      	ldr	r3, [r7, #12]
 8000654:	429a      	cmp	r2, r3
 8000656:	d303      	bcc.n	8000660 <Ultrasonic_Measure+0xb8>
 8000658:	68ba      	ldr	r2, [r7, #8]
 800065a:	68fb      	ldr	r3, [r7, #12]
 800065c:	1ad3      	subs	r3, r2, r3
 800065e:	e005      	b.n	800066c <Ultrasonic_Measure+0xc4>
 8000660:	68ba      	ldr	r2, [r7, #8]
 8000662:	68fb      	ldr	r3, [r7, #12]
 8000664:	1ad3      	subs	r3, r2, r3
 8000666:	f503 437f 	add.w	r3, r3, #65280	@ 0xff00
 800066a:	33ff      	adds	r3, #255	@ 0xff
 800066c:	607b      	str	r3, [r7, #4]
    uint32_t distance = width / 58U;
 800066e:	687b      	ldr	r3, [r7, #4]
 8000670:	4a05      	ldr	r2, [pc, #20]	@ (8000688 <Ultrasonic_Measure+0xe0>)
 8000672:	fba2 2303 	umull	r2, r3, r2, r3
 8000676:	095b      	lsrs	r3, r3, #5
 8000678:	603b      	str	r3, [r7, #0]
    return distance;
 800067a:	683b      	ldr	r3, [r7, #0]
}
 800067c:	4618      	mov	r0, r3
 800067e:	3710      	adds	r7, #16
 8000680:	46bd      	mov	sp, r7
 8000682:	bd80      	pop	{r7, pc}
 8000684:	40012c00 	.word	0x40012c00
 8000688:	8d3dcb09 	.word	0x8d3dcb09

0800068c <Print_Logged_Data>:

/* Print logged flash */
void Print_Logged_Data(void)
{
 800068c:	b580      	push	{r7, lr}
 800068e:	b090      	sub	sp, #64	@ 0x40
 8000690:	af00      	add	r7, sp, #0
    UART2_SendString("\r\n--- Stored Distances ---\r\n");
 8000692:	4813      	ldr	r0, [pc, #76]	@ (80006e0 <Print_Logged_Data+0x54>)
 8000694:	f7ff fe6c 	bl	8000370 <UART2_SendString>
    for(uint32_t addr = LOG_FLASH_ADDR; addr < flash_write_ptr; addr += 8)
 8000698:	4b12      	ldr	r3, [pc, #72]	@ (80006e4 <Print_Logged_Data+0x58>)
 800069a:	63fb      	str	r3, [r7, #60]	@ 0x3c
 800069c:	e016      	b.n	80006cc <Print_Logged_Data+0x40>
    {
        uint32_t d = Flash_Read32(addr);
 800069e:	6bf8      	ldr	r0, [r7, #60]	@ 0x3c
 80006a0:	f7ff ff76 	bl	8000590 <Flash_Read32>
 80006a4:	63b8      	str	r0, [r7, #56]	@ 0x38
        char buf[48];
        int n = sprintf(buf, "%lu cm\r\n", (unsigned long)d);
 80006a6:	1d3b      	adds	r3, r7, #4
 80006a8:	6bba      	ldr	r2, [r7, #56]	@ 0x38
 80006aa:	490f      	ldr	r1, [pc, #60]	@ (80006e8 <Print_Logged_Data+0x5c>)
 80006ac:	4618      	mov	r0, r3
 80006ae:	f000 fd6b 	bl	8001188 <siprintf>
 80006b2:	6378      	str	r0, [r7, #52]	@ 0x34
        if(n>0) USART_SendData(&huart2, (uint8_t*)buf, (uint32_t)n);
 80006b4:	6b7b      	ldr	r3, [r7, #52]	@ 0x34
 80006b6:	2b00      	cmp	r3, #0
 80006b8:	dd05      	ble.n	80006c6 <Print_Logged_Data+0x3a>
 80006ba:	6b7a      	ldr	r2, [r7, #52]	@ 0x34
 80006bc:	1d3b      	adds	r3, r7, #4
 80006be:	4619      	mov	r1, r3
 80006c0:	480a      	ldr	r0, [pc, #40]	@ (80006ec <Print_Logged_Data+0x60>)
 80006c2:	f000 fcef 	bl	80010a4 <USART_SendData>
    for(uint32_t addr = LOG_FLASH_ADDR; addr < flash_write_ptr; addr += 8)
 80006c6:	6bfb      	ldr	r3, [r7, #60]	@ 0x3c
 80006c8:	3308      	adds	r3, #8
 80006ca:	63fb      	str	r3, [r7, #60]	@ 0x3c
 80006cc:	4b08      	ldr	r3, [pc, #32]	@ (80006f0 <Print_Logged_Data+0x64>)
 80006ce:	681b      	ldr	r3, [r3, #0]
 80006d0:	6bfa      	ldr	r2, [r7, #60]	@ 0x3c
 80006d2:	429a      	cmp	r2, r3
 80006d4:	d3e3      	bcc.n	800069e <Print_Logged_Data+0x12>
    }
}
 80006d6:	bf00      	nop
 80006d8:	bf00      	nop
 80006da:	3740      	adds	r7, #64	@ 0x40
 80006dc:	46bd      	mov	sp, r7
 80006de:	bd80      	pop	{r7, pc}
 80006e0:	08001ad0 	.word	0x08001ad0
 80006e4:	08080000 	.word	0x08080000
 80006e8:	08001af0 	.word	0x08001af0
 80006ec:	20000070 	.word	0x20000070
 80006f0:	20000000 	.word	0x20000000

080006f4 <main>:

/* main */

uint32_t dist;
int main(void)
{
 80006f4:	e92d 43b0 	stmdb	sp!, {r4, r5, r7, r8, r9, lr}
 80006f8:	b094      	sub	sp, #80	@ 0x50
 80006fa:	af00      	add	r7, sp, #0
    App_GPIO_Init();
 80006fc:	f7ff fe4e 	bl	800039c <App_GPIO_Init>
    TIM1_InputCapture_Init();
 8000700:	f7ff fe8e 	bl	8000420 <TIM1_InputCapture_Init>
    UART2_Init_using_driver();
 8000704:	f7ff fdf2 	bl	80002ec <UART2_Init_using_driver>

    //delay_ms(1500); /* allow VCP up */

    Flash_EraseSector(LOG_FLASH_SECTOR);
 8000708:	2007      	movs	r0, #7
 800070a:	f7ff fee3 	bl	80004d4 <Flash_EraseSector>
    flash_write_ptr = LOG_FLASH_ADDR;
 800070e:	4b2c      	ldr	r3, [pc, #176]	@ (80007c0 <main+0xcc>)
 8000710:	4a2c      	ldr	r2, [pc, #176]	@ (80007c4 <main+0xd0>)
 8000712:	601a      	str	r2, [r3, #0]

    UART2_SendString("System started (driver-based UART)\r\n");
 8000714:	482c      	ldr	r0, [pc, #176]	@ (80007c8 <main+0xd4>)
 8000716:	f7ff fe2b 	bl	8000370 <UART2_SendString>

    while(1)
    {
        dist = Ultrasonic_Measure();
 800071a:	f7ff ff45 	bl	80005a8 <Ultrasonic_Measure>
 800071e:	4603      	mov	r3, r0
 8000720:	4a2a      	ldr	r2, [pc, #168]	@ (80007cc <main+0xd8>)
 8000722:	6013      	str	r3, [r2, #0]
        uint64_t data = ((uint64_t)dist << 32) | dist;
 8000724:	4b29      	ldr	r3, [pc, #164]	@ (80007cc <main+0xd8>)
 8000726:	681b      	ldr	r3, [r3, #0]
 8000728:	2200      	movs	r2, #0
 800072a:	4698      	mov	r8, r3
 800072c:	4691      	mov	r9, r2
 800072e:	2301      	movs	r3, #1
 8000730:	fb03 f209 	mul.w	r2, r3, r9
 8000734:	2301      	movs	r3, #1
 8000736:	fb03 f308 	mul.w	r3, r3, r8
 800073a:	4413      	add	r3, r2
 800073c:	2201      	movs	r2, #1
 800073e:	fba8 4502 	umull	r4, r5, r8, r2
 8000742:	442b      	add	r3, r5
 8000744:	461d      	mov	r5, r3
 8000746:	e9c7 4512 	strd	r4, r5, [r7, #72]	@ 0x48
 800074a:	e9c7 4512 	strd	r4, r5, [r7, #72]	@ 0x48
        Flash_Write64(flash_write_ptr, data);
 800074e:	4b1c      	ldr	r3, [pc, #112]	@ (80007c0 <main+0xcc>)
 8000750:	6819      	ldr	r1, [r3, #0]
 8000752:	e9d7 2312 	ldrd	r2, r3, [r7, #72]	@ 0x48
 8000756:	4608      	mov	r0, r1
 8000758:	f7ff fef2 	bl	8000540 <Flash_Write64>
        flash_write_ptr += 8;
 800075c:	4b18      	ldr	r3, [pc, #96]	@ (80007c0 <main+0xcc>)
 800075e:	681b      	ldr	r3, [r3, #0]
 8000760:	3308      	adds	r3, #8
 8000762:	4a17      	ldr	r2, [pc, #92]	@ (80007c0 <main+0xcc>)
 8000764:	6013      	str	r3, [r2, #0]

        char out[64];
        int n = sprintf(out, "Distance = %lu cm\r\n", (unsigned long)dist);
 8000766:	4b19      	ldr	r3, [pc, #100]	@ (80007cc <main+0xd8>)
 8000768:	681a      	ldr	r2, [r3, #0]
 800076a:	1d3b      	adds	r3, r7, #4
 800076c:	4918      	ldr	r1, [pc, #96]	@ (80007d0 <main+0xdc>)
 800076e:	4618      	mov	r0, r3
 8000770:	f000 fd0a 	bl	8001188 <siprintf>
 8000774:	6478      	str	r0, [r7, #68]	@ 0x44
        if(n>0) USART_SendData(&huart2, (uint8_t*)out, (uint32_t)n);
 8000776:	6c7b      	ldr	r3, [r7, #68]	@ 0x44
 8000778:	2b00      	cmp	r3, #0
 800077a:	dd05      	ble.n	8000788 <main+0x94>
 800077c:	6c7a      	ldr	r2, [r7, #68]	@ 0x44
 800077e:	1d3b      	adds	r3, r7, #4
 8000780:	4619      	mov	r1, r3
 8000782:	4814      	ldr	r0, [pc, #80]	@ (80007d4 <main+0xe0>)
 8000784:	f000 fc8e 	bl	80010a4 <USART_SendData>

        delay_ms(10);
 8000788:	200a      	movs	r0, #10
 800078a:	f7ff fd9b 	bl	80002c4 <delay_ms>

        if(GPIO_ReadFromInputPin(GPIOC, BUTTON_PIN_NO) == 0) /* pressed */
 800078e:	210d      	movs	r1, #13
 8000790:	4811      	ldr	r0, [pc, #68]	@ (80007d8 <main+0xe4>)
 8000792:	f000 faef 	bl	8000d74 <GPIO_ReadFromInputPin>
 8000796:	4603      	mov	r3, r0
 8000798:	2b00      	cmp	r3, #0
 800079a:	d1be      	bne.n	800071a <main+0x26>
        {
            delay_ms(200);
 800079c:	20c8      	movs	r0, #200	@ 0xc8
 800079e:	f7ff fd91 	bl	80002c4 <delay_ms>
            Print_Logged_Data();
 80007a2:	f7ff ff73 	bl	800068c <Print_Logged_Data>
            while(GPIO_ReadFromInputPin(GPIOC, BUTTON_PIN_NO) == 0) delay_ms(10);
 80007a6:	e002      	b.n	80007ae <main+0xba>
 80007a8:	200a      	movs	r0, #10
 80007aa:	f7ff fd8b 	bl	80002c4 <delay_ms>
 80007ae:	210d      	movs	r1, #13
 80007b0:	4809      	ldr	r0, [pc, #36]	@ (80007d8 <main+0xe4>)
 80007b2:	f000 fadf 	bl	8000d74 <GPIO_ReadFromInputPin>
 80007b6:	4603      	mov	r3, r0
 80007b8:	2b00      	cmp	r3, #0
 80007ba:	d0f5      	beq.n	80007a8 <main+0xb4>
    {
 80007bc:	e7ad      	b.n	800071a <main+0x26>
 80007be:	bf00      	nop
 80007c0:	20000000 	.word	0x20000000
 80007c4:	08080000 	.word	0x08080000
 80007c8:	08001afc 	.word	0x08001afc
 80007cc:	20000094 	.word	0x20000094
 80007d0:	08001b24 	.word	0x08001b24
 80007d4:	20000070 	.word	0x20000070
 80007d8:	48000800 	.word	0x48000800

080007dc <_sbrk>:
 *
 * @param incr Memory size
 * @return Pointer to allocated memory
 */
void *_sbrk(ptrdiff_t incr)
{
 80007dc:	b580      	push	{r7, lr}
 80007de:	b086      	sub	sp, #24
 80007e0:	af00      	add	r7, sp, #0
 80007e2:	6078      	str	r0, [r7, #4]
  extern uint8_t _end; /* Symbol defined in the linker script */
  extern uint8_t _estack; /* Symbol defined in the linker script */
  extern uint32_t _Min_Stack_Size; /* Symbol defined in the linker script */
  const uint32_t stack_limit = (uint32_t)&_estack - (uint32_t)&_Min_Stack_Size;
 80007e4:	4a14      	ldr	r2, [pc, #80]	@ (8000838 <_sbrk+0x5c>)
 80007e6:	4b15      	ldr	r3, [pc, #84]	@ (800083c <_sbrk+0x60>)
 80007e8:	1ad3      	subs	r3, r2, r3
 80007ea:	617b      	str	r3, [r7, #20]
  const uint8_t *max_heap = (uint8_t *)stack_limit;
 80007ec:	697b      	ldr	r3, [r7, #20]
 80007ee:	613b      	str	r3, [r7, #16]
  uint8_t *prev_heap_end;

  /* Initialize heap end at first call */
  if (NULL == __sbrk_heap_end)
 80007f0:	4b13      	ldr	r3, [pc, #76]	@ (8000840 <_sbrk+0x64>)
 80007f2:	681b      	ldr	r3, [r3, #0]
 80007f4:	2b00      	cmp	r3, #0
 80007f6:	d102      	bne.n	80007fe <_sbrk+0x22>
  {
    __sbrk_heap_end = &_end;
 80007f8:	4b11      	ldr	r3, [pc, #68]	@ (8000840 <_sbrk+0x64>)
 80007fa:	4a12      	ldr	r2, [pc, #72]	@ (8000844 <_sbrk+0x68>)
 80007fc:	601a      	str	r2, [r3, #0]
  }

  /* Protect heap from growing into the reserved MSP stack */
  if (__sbrk_heap_end + incr > max_heap)
 80007fe:	4b10      	ldr	r3, [pc, #64]	@ (8000840 <_sbrk+0x64>)
 8000800:	681a      	ldr	r2, [r3, #0]
 8000802:	687b      	ldr	r3, [r7, #4]
 8000804:	4413      	add	r3, r2
 8000806:	693a      	ldr	r2, [r7, #16]
 8000808:	429a      	cmp	r2, r3
 800080a:	d207      	bcs.n	800081c <_sbrk+0x40>
  {
    errno = ENOMEM;
 800080c:	f000 fcde 	bl	80011cc <__errno>
 8000810:	4603      	mov	r3, r0
 8000812:	220c      	movs	r2, #12
 8000814:	601a      	str	r2, [r3, #0]
    return (void *)-1;
 8000816:	f04f 33ff 	mov.w	r3, #4294967295
 800081a:	e009      	b.n	8000830 <_sbrk+0x54>
  }

  prev_heap_end = __sbrk_heap_end;
 800081c:	4b08      	ldr	r3, [pc, #32]	@ (8000840 <_sbrk+0x64>)
 800081e:	681b      	ldr	r3, [r3, #0]
 8000820:	60fb      	str	r3, [r7, #12]
  __sbrk_heap_end += incr;
 8000822:	4b07      	ldr	r3, [pc, #28]	@ (8000840 <_sbrk+0x64>)
 8000824:	681a      	ldr	r2, [r3, #0]
 8000826:	687b      	ldr	r3, [r7, #4]
 8000828:	4413      	add	r3, r2
 800082a:	4a05      	ldr	r2, [pc, #20]	@ (8000840 <_sbrk+0x64>)
 800082c:	6013      	str	r3, [r2, #0]

  return (void *)prev_heap_end;
 800082e:	68fb      	ldr	r3, [r7, #12]
}
 8000830:	4618      	mov	r0, r3
 8000832:	3718      	adds	r7, #24
 8000834:	46bd      	mov	sp, r7
 8000836:	bd80      	pop	{r7, pc}
 8000838:	20018000 	.word	0x20018000
 800083c:	00000400 	.word	0x00000400
 8000840:	20000098 	.word	0x20000098
 8000844:	200001e8 	.word	0x200001e8

08000848 <Reset_Handler>:

  .section .text.Reset_Handler
  .weak Reset_Handler
  .type Reset_Handler, %function
Reset_Handler:
  ldr   r0, =_estack
 8000848:	480d      	ldr	r0, [pc, #52]	@ (8000880 <LoopForever+0x2>)
  mov   sp, r0          /* set stack pointer */
 800084a:	4685      	mov	sp, r0
/* Call the clock system initialization function.*/
  bl  SystemInit
 800084c:	f3af 8000 	nop.w

/* Copy the data segment initializers from flash to SRAM */
  ldr r0, =_sdata
 8000850:	480c      	ldr	r0, [pc, #48]	@ (8000884 <LoopForever+0x6>)
  ldr r1, =_edata
 8000852:	490d      	ldr	r1, [pc, #52]	@ (8000888 <LoopForever+0xa>)
  ldr r2, =_sidata
 8000854:	4a0d      	ldr	r2, [pc, #52]	@ (800088c <LoopForever+0xe>)
  movs r3, #0
 8000856:	2300      	movs	r3, #0
  b LoopCopyDataInit
 8000858:	e002      	b.n	8000860 <LoopCopyDataInit>

0800085a <CopyDataInit>:

CopyDataInit:
  ldr r4, [r2, r3]
 800085a:	58d4      	ldr	r4, [r2, r3]
  str r4, [r0, r3]
 800085c:	50c4      	str	r4, [r0, r3]
  adds r3, r3, #4
 800085e:	3304      	adds	r3, #4

08000860 <LoopCopyDataInit>:

LoopCopyDataInit:
  adds r4, r0, r3
 8000860:	18c4      	adds	r4, r0, r3
  cmp r4, r1
 8000862:	428c      	cmp	r4, r1
  bcc CopyDataInit
 8000864:	d3f9      	bcc.n	800085a <CopyDataInit>

/* Zero fill the bss segment. */
  ldr r2, =_sbss
 8000866:	4a0a      	ldr	r2, [pc, #40]	@ (8000890 <LoopForever+0x12>)
  ldr r4, =_ebss
 8000868:	4c0a      	ldr	r4, [pc, #40]	@ (8000894 <LoopForever+0x16>)
  movs r3, #0
 800086a:	2300      	movs	r3, #0
  b LoopFillZerobss
 800086c:	e001      	b.n	8000872 <LoopFillZerobss>

0800086e <FillZerobss>:

FillZerobss:
  str  r3, [r2]
 800086e:	6013      	str	r3, [r2, #0]
  adds r2, r2, #4
 8000870:	3204      	adds	r2, #4

08000872 <LoopFillZerobss>:

LoopFillZerobss:
  cmp r2, r4
 8000872:	42a2      	cmp	r2, r4
  bcc FillZerobss
 8000874:	d3fb      	bcc.n	800086e <FillZerobss>


/* Call static constructors */
  bl __libc_init_array
 8000876:	f000 fcaf 	bl	80011d8 <__libc_init_array>
/* Call the application's entry point.*/

  bl main
 800087a:	f7ff ff3b 	bl	80006f4 <main>

0800087e <LoopForever>:

LoopForever:
  b LoopForever
 800087e:	e7fe      	b.n	800087e <LoopForever>
  ldr   r0, =_estack
 8000880:	20018000 	.word	0x20018000
  ldr r0, =_sdata
 8000884:	20000000 	.word	0x20000000
  ldr r1, =_edata
 8000888:	20000054 	.word	0x20000054
  ldr r2, =_sidata
 800088c:	08001b7c 	.word	0x08001b7c
  ldr r2, =_sbss
 8000890:	20000054 	.word	0x20000054
  ldr r4, =_ebss
 8000894:	200001e4 	.word	0x200001e4

08000898 <ADC1_2_IRQHandler>:
 * @retval : None
*/
  .section .text.Default_Handler,"ax",%progbits
Default_Handler:
Infinite_Loop:
  b Infinite_Loop
 8000898:	e7fe      	b.n	8000898 <ADC1_2_IRQHandler>
	...

0800089c <GPIO_PeriClockControl>:
#include "stm32l476xx_gpio_driver.h"

// Peripheral clock setup
void GPIO_PeriClockControl(GPIO_RegDef_t *pGPIOx, uint8_t EnorDi){
 800089c:	b480      	push	{r7}
 800089e:	b083      	sub	sp, #12
 80008a0:	af00      	add	r7, sp, #0
 80008a2:	6078      	str	r0, [r7, #4]
 80008a4:	460b      	mov	r3, r1
 80008a6:	70fb      	strb	r3, [r7, #3]
	if(EnorDi == ENABLE){
 80008a8:	78fb      	ldrb	r3, [r7, #3]
 80008aa:	2b01      	cmp	r3, #1
 80008ac:	d157      	bne.n	800095e <GPIO_PeriClockControl+0xc2>
		if(pGPIOx==GPIOA){ GPIOA_PCLK_EN(); }
 80008ae:	687b      	ldr	r3, [r7, #4]
 80008b0:	f1b3 4f90 	cmp.w	r3, #1207959552	@ 0x48000000
 80008b4:	d106      	bne.n	80008c4 <GPIO_PeriClockControl+0x28>
 80008b6:	4b58      	ldr	r3, [pc, #352]	@ (8000a18 <GPIO_PeriClockControl+0x17c>)
 80008b8:	6cdb      	ldr	r3, [r3, #76]	@ 0x4c
 80008ba:	4a57      	ldr	r2, [pc, #348]	@ (8000a18 <GPIO_PeriClockControl+0x17c>)
 80008bc:	f043 0301 	orr.w	r3, r3, #1
 80008c0:	64d3      	str	r3, [r2, #76]	@ 0x4c
		else if(pGPIOx==GPIOE){ GPIOE_PCLK_DI(); }
		else if(pGPIOx==GPIOF){ GPIOF_PCLK_DI(); }
		else if(pGPIOx==GPIOG){ GPIOG_PCLK_DI(); }
		else if(pGPIOx==GPIOH){ GPIOH_PCLK_DI(); }
	}
}
 80008c2:	e0a3      	b.n	8000a0c <GPIO_PeriClockControl+0x170>
		else if(pGPIOx==GPIOB){ GPIOB_PCLK_EN(); }
 80008c4:	687b      	ldr	r3, [r7, #4]
 80008c6:	4a55      	ldr	r2, [pc, #340]	@ (8000a1c <GPIO_PeriClockControl+0x180>)
 80008c8:	4293      	cmp	r3, r2
 80008ca:	d106      	bne.n	80008da <GPIO_PeriClockControl+0x3e>
 80008cc:	4b52      	ldr	r3, [pc, #328]	@ (8000a18 <GPIO_PeriClockControl+0x17c>)
 80008ce:	6cdb      	ldr	r3, [r3, #76]	@ 0x4c
 80008d0:	4a51      	ldr	r2, [pc, #324]	@ (8000a18 <GPIO_PeriClockControl+0x17c>)
 80008d2:	f043 0302 	orr.w	r3, r3, #2
 80008d6:	64d3      	str	r3, [r2, #76]	@ 0x4c
}
 80008d8:	e098      	b.n	8000a0c <GPIO_PeriClockControl+0x170>
		else if(pGPIOx==GPIOC){ GPIOC_PCLK_EN(); }
 80008da:	687b      	ldr	r3, [r7, #4]
 80008dc:	4a50      	ldr	r2, [pc, #320]	@ (8000a20 <GPIO_PeriClockControl+0x184>)
 80008de:	4293      	cmp	r3, r2
 80008e0:	d106      	bne.n	80008f0 <GPIO_PeriClockControl+0x54>
 80008e2:	4b4d      	ldr	r3, [pc, #308]	@ (8000a18 <GPIO_PeriClockControl+0x17c>)
 80008e4:	6cdb      	ldr	r3, [r3, #76]	@ 0x4c
 80008e6:	4a4c      	ldr	r2, [pc, #304]	@ (8000a18 <GPIO_PeriClockControl+0x17c>)
 80008e8:	f043 0304 	orr.w	r3, r3, #4
 80008ec:	64d3      	str	r3, [r2, #76]	@ 0x4c
}
 80008ee:	e08d      	b.n	8000a0c <GPIO_PeriClockControl+0x170>
		else if(pGPIOx==GPIOD){ GPIOD_PCLK_EN(); }
 80008f0:	687b      	ldr	r3, [r7, #4]
 80008f2:	4a4c      	ldr	r2, [pc, #304]	@ (8000a24 <GPIO_PeriClockControl+0x188>)
 80008f4:	4293      	cmp	r3, r2
 80008f6:	d106      	bne.n	8000906 <GPIO_PeriClockControl+0x6a>
 80008f8:	4b47      	ldr	r3, [pc, #284]	@ (8000a18 <GPIO_PeriClockControl+0x17c>)
 80008fa:	6cdb      	ldr	r3, [r3, #76]	@ 0x4c
 80008fc:	4a46      	ldr	r2, [pc, #280]	@ (8000a18 <GPIO_PeriClockControl+0x17c>)
 80008fe:	f043 0308 	orr.w	r3, r3, #8
 8000902:	64d3      	str	r3, [r2, #76]	@ 0x4c
}
 8000904:	e082      	b.n	8000a0c <GPIO_PeriClockControl+0x170>
		else if(pGPIOx==GPIOE){ GPIOE_PCLK_EN(); }
 8000906:	687b      	ldr	r3, [r7, #4]
 8000908:	4a47      	ldr	r2, [pc, #284]	@ (8000a28 <GPIO_PeriClockControl+0x18c>)
 800090a:	4293      	cmp	r3, r2
 800090c:	d106      	bne.n	800091c <GPIO_PeriClockControl+0x80>
 800090e:	4b42      	ldr	r3, [pc, #264]	@ (8000a18 <GPIO_PeriClockControl+0x17c>)
 8000910:	6cdb      	ldr	r3, [r3, #76]	@ 0x4c
 8000912:	4a41      	ldr	r2, [pc, #260]	@ (8000a18 <GPIO_PeriClockControl+0x17c>)
 8000914:	f043 0310 	orr.w	r3, r3, #16
 8000918:	64d3      	str	r3, [r2, #76]	@ 0x4c
}
 800091a:	e077      	b.n	8000a0c <GPIO_PeriClockControl+0x170>
		else if(pGPIOx==GPIOF){ GPIOF_PCLK_EN(); }
 800091c:	687b      	ldr	r3, [r7, #4]
 800091e:	4a43      	ldr	r2, [pc, #268]	@ (8000a2c <GPIO_PeriClockControl+0x190>)
 8000920:	4293      	cmp	r3, r2
 8000922:	d106      	bne.n	8000932 <GPIO_PeriClockControl+0x96>
 8000924:	4b3c      	ldr	r3, [pc, #240]	@ (8000a18 <GPIO_PeriClockControl+0x17c>)
 8000926:	6cdb      	ldr	r3, [r3, #76]	@ 0x4c
 8000928:	4a3b      	ldr	r2, [pc, #236]	@ (8000a18 <GPIO_PeriClockControl+0x17c>)
 800092a:	f043 0320 	orr.w	r3, r3, #32
 800092e:	64d3      	str	r3, [r2, #76]	@ 0x4c
}
 8000930:	e06c      	b.n	8000a0c <GPIO_PeriClockControl+0x170>
		else if(pGPIOx==GPIOG){ GPIOG_PCLK_EN(); }
 8000932:	687b      	ldr	r3, [r7, #4]
 8000934:	4a3e      	ldr	r2, [pc, #248]	@ (8000a30 <GPIO_PeriClockControl+0x194>)
 8000936:	4293      	cmp	r3, r2
 8000938:	d106      	bne.n	8000948 <GPIO_PeriClockControl+0xac>
 800093a:	4b37      	ldr	r3, [pc, #220]	@ (8000a18 <GPIO_PeriClockControl+0x17c>)
 800093c:	6cdb      	ldr	r3, [r3, #76]	@ 0x4c
 800093e:	4a36      	ldr	r2, [pc, #216]	@ (8000a18 <GPIO_PeriClockControl+0x17c>)
 8000940:	f043 0340 	orr.w	r3, r3, #64	@ 0x40
 8000944:	64d3      	str	r3, [r2, #76]	@ 0x4c
}
 8000946:	e061      	b.n	8000a0c <GPIO_PeriClockControl+0x170>
		else if(pGPIOx==GPIOH){ GPIOH_PCLK_EN(); }
 8000948:	687b      	ldr	r3, [r7, #4]
 800094a:	4a3a      	ldr	r2, [pc, #232]	@ (8000a34 <GPIO_PeriClockControl+0x198>)
 800094c:	4293      	cmp	r3, r2
 800094e:	d15d      	bne.n	8000a0c <GPIO_PeriClockControl+0x170>
 8000950:	4b31      	ldr	r3, [pc, #196]	@ (8000a18 <GPIO_PeriClockControl+0x17c>)
 8000952:	6cdb      	ldr	r3, [r3, #76]	@ 0x4c
 8000954:	4a30      	ldr	r2, [pc, #192]	@ (8000a18 <GPIO_PeriClockControl+0x17c>)
 8000956:	f043 0380 	orr.w	r3, r3, #128	@ 0x80
 800095a:	64d3      	str	r3, [r2, #76]	@ 0x4c
}
 800095c:	e056      	b.n	8000a0c <GPIO_PeriClockControl+0x170>
		if(pGPIOx==GPIOA){ GPIOA_PCLK_DI(); }
 800095e:	687b      	ldr	r3, [r7, #4]
 8000960:	f1b3 4f90 	cmp.w	r3, #1207959552	@ 0x48000000
 8000964:	d106      	bne.n	8000974 <GPIO_PeriClockControl+0xd8>
 8000966:	4b2c      	ldr	r3, [pc, #176]	@ (8000a18 <GPIO_PeriClockControl+0x17c>)
 8000968:	6cdb      	ldr	r3, [r3, #76]	@ 0x4c
 800096a:	4a2b      	ldr	r2, [pc, #172]	@ (8000a18 <GPIO_PeriClockControl+0x17c>)
 800096c:	f023 0301 	bic.w	r3, r3, #1
 8000970:	64d3      	str	r3, [r2, #76]	@ 0x4c
}
 8000972:	e04b      	b.n	8000a0c <GPIO_PeriClockControl+0x170>
		else if(pGPIOx==GPIOB){ GPIOB_PCLK_DI(); }
 8000974:	687b      	ldr	r3, [r7, #4]
 8000976:	4a29      	ldr	r2, [pc, #164]	@ (8000a1c <GPIO_PeriClockControl+0x180>)
 8000978:	4293      	cmp	r3, r2
 800097a:	d106      	bne.n	800098a <GPIO_PeriClockControl+0xee>
 800097c:	4b26      	ldr	r3, [pc, #152]	@ (8000a18 <GPIO_PeriClockControl+0x17c>)
 800097e:	6cdb      	ldr	r3, [r3, #76]	@ 0x4c
 8000980:	4a25      	ldr	r2, [pc, #148]	@ (8000a18 <GPIO_PeriClockControl+0x17c>)
 8000982:	f023 0302 	bic.w	r3, r3, #2
 8000986:	64d3      	str	r3, [r2, #76]	@ 0x4c
}
 8000988:	e040      	b.n	8000a0c <GPIO_PeriClockControl+0x170>
		else if(pGPIOx==GPIOC){ GPIOC_PCLK_DI(); }
 800098a:	687b      	ldr	r3, [r7, #4]
 800098c:	4a24      	ldr	r2, [pc, #144]	@ (8000a20 <GPIO_PeriClockControl+0x184>)
 800098e:	4293      	cmp	r3, r2
 8000990:	d106      	bne.n	80009a0 <GPIO_PeriClockControl+0x104>
 8000992:	4b21      	ldr	r3, [pc, #132]	@ (8000a18 <GPIO_PeriClockControl+0x17c>)
 8000994:	6cdb      	ldr	r3, [r3, #76]	@ 0x4c
 8000996:	4a20      	ldr	r2, [pc, #128]	@ (8000a18 <GPIO_PeriClockControl+0x17c>)
 8000998:	f023 0304 	bic.w	r3, r3, #4
 800099c:	64d3      	str	r3, [r2, #76]	@ 0x4c
}
 800099e:	e035      	b.n	8000a0c <GPIO_PeriClockControl+0x170>
		else if(pGPIOx==GPIOD){ GPIOD_PCLK_DI(); }
 80009a0:	687b      	ldr	r3, [r7, #4]
 80009a2:	4a20      	ldr	r2, [pc, #128]	@ (8000a24 <GPIO_PeriClockControl+0x188>)
 80009a4:	4293      	cmp	r3, r2
 80009a6:	d106      	bne.n	80009b6 <GPIO_PeriClockControl+0x11a>
 80009a8:	4b1b      	ldr	r3, [pc, #108]	@ (8000a18 <GPIO_PeriClockControl+0x17c>)
 80009aa:	6cdb      	ldr	r3, [r3, #76]	@ 0x4c
 80009ac:	4a1a      	ldr	r2, [pc, #104]	@ (8000a18 <GPIO_PeriClockControl+0x17c>)
 80009ae:	f023 0308 	bic.w	r3, r3, #8
 80009b2:	64d3      	str	r3, [r2, #76]	@ 0x4c
}
 80009b4:	e02a      	b.n	8000a0c <GPIO_PeriClockControl+0x170>
		else if(pGPIOx==GPIOE){ GPIOE_PCLK_DI(); }
 80009b6:	687b      	ldr	r3, [r7, #4]
 80009b8:	4a1b      	ldr	r2, [pc, #108]	@ (8000a28 <GPIO_PeriClockControl+0x18c>)
 80009ba:	4293      	cmp	r3, r2
 80009bc:	d106      	bne.n	80009cc <GPIO_PeriClockControl+0x130>
 80009be:	4b16      	ldr	r3, [pc, #88]	@ (8000a18 <GPIO_PeriClockControl+0x17c>)
 80009c0:	6cdb      	ldr	r3, [r3, #76]	@ 0x4c
 80009c2:	4a15      	ldr	r2, [pc, #84]	@ (8000a18 <GPIO_PeriClockControl+0x17c>)
 80009c4:	f023 0310 	bic.w	r3, r3, #16
 80009c8:	64d3      	str	r3, [r2, #76]	@ 0x4c
}
 80009ca:	e01f      	b.n	8000a0c <GPIO_PeriClockControl+0x170>
		else if(pGPIOx==GPIOF){ GPIOF_PCLK_DI(); }
 80009cc:	687b      	ldr	r3, [r7, #4]
 80009ce:	4a17      	ldr	r2, [pc, #92]	@ (8000a2c <GPIO_PeriClockControl+0x190>)
 80009d0:	4293      	cmp	r3, r2
 80009d2:	d106      	bne.n	80009e2 <GPIO_PeriClockControl+0x146>
 80009d4:	4b10      	ldr	r3, [pc, #64]	@ (8000a18 <GPIO_PeriClockControl+0x17c>)
 80009d6:	6cdb      	ldr	r3, [r3, #76]	@ 0x4c
 80009d8:	4a0f      	ldr	r2, [pc, #60]	@ (8000a18 <GPIO_PeriClockControl+0x17c>)
 80009da:	f023 0320 	bic.w	r3, r3, #32
 80009de:	64d3      	str	r3, [r2, #76]	@ 0x4c
}
 80009e0:	e014      	b.n	8000a0c <GPIO_PeriClockControl+0x170>
		else if(pGPIOx==GPIOG){ GPIOG_PCLK_DI(); }
 80009e2:	687b      	ldr	r3, [r7, #4]
 80009e4:	4a12      	ldr	r2, [pc, #72]	@ (8000a30 <GPIO_PeriClockControl+0x194>)
 80009e6:	4293      	cmp	r3, r2
 80009e8:	d106      	bne.n	80009f8 <GPIO_PeriClockControl+0x15c>
 80009ea:	4b0b      	ldr	r3, [pc, #44]	@ (8000a18 <GPIO_PeriClockControl+0x17c>)
 80009ec:	6cdb      	ldr	r3, [r3, #76]	@ 0x4c
 80009ee:	4a0a      	ldr	r2, [pc, #40]	@ (8000a18 <GPIO_PeriClockControl+0x17c>)
 80009f0:	f023 0340 	bic.w	r3, r3, #64	@ 0x40
 80009f4:	64d3      	str	r3, [r2, #76]	@ 0x4c
}
 80009f6:	e009      	b.n	8000a0c <GPIO_PeriClockControl+0x170>
		else if(pGPIOx==GPIOH){ GPIOH_PCLK_DI(); }
 80009f8:	687b      	ldr	r3, [r7, #4]
 80009fa:	4a0e      	ldr	r2, [pc, #56]	@ (8000a34 <GPIO_PeriClockControl+0x198>)
 80009fc:	4293      	cmp	r3, r2
 80009fe:	d105      	bne.n	8000a0c <GPIO_PeriClockControl+0x170>
 8000a00:	4b05      	ldr	r3, [pc, #20]	@ (8000a18 <GPIO_PeriClockControl+0x17c>)
 8000a02:	6cdb      	ldr	r3, [r3, #76]	@ 0x4c
 8000a04:	4a04      	ldr	r2, [pc, #16]	@ (8000a18 <GPIO_PeriClockControl+0x17c>)
 8000a06:	f023 0380 	bic.w	r3, r3, #128	@ 0x80
 8000a0a:	64d3      	str	r3, [r2, #76]	@ 0x4c
}
 8000a0c:	bf00      	nop
 8000a0e:	370c      	adds	r7, #12
 8000a10:	46bd      	mov	sp, r7
 8000a12:	bc80      	pop	{r7}
 8000a14:	4770      	bx	lr
 8000a16:	bf00      	nop
 8000a18:	40021000 	.word	0x40021000
 8000a1c:	48000400 	.word	0x48000400
 8000a20:	48000800 	.word	0x48000800
 8000a24:	48000c00 	.word	0x48000c00
 8000a28:	48001000 	.word	0x48001000
 8000a2c:	48001400 	.word	0x48001400
 8000a30:	48001800 	.word	0x48001800
 8000a34:	48001c00 	.word	0x48001c00

08000a38 <GPIO_Init>:


// Init and Deinit
void GPIO_Init(GPIO_Handle_t *pGPIOHandle)
{
 8000a38:	b480      	push	{r7}
 8000a3a:	b087      	sub	sp, #28
 8000a3c:	af00      	add	r7, sp, #0
 8000a3e:	6078      	str	r0, [r7, #4]
    uint32_t temp = 0;
 8000a40:	2300      	movs	r3, #0
 8000a42:	617b      	str	r3, [r7, #20]

    // MUST ENABLE SYSCFG for EXTI
    RCC->APB2ENR |= RCC_APB2ENR_SYSCFGEN;
 8000a44:	4b5c      	ldr	r3, [pc, #368]	@ (8000bb8 <GPIO_Init+0x180>)
 8000a46:	6e1b      	ldr	r3, [r3, #96]	@ 0x60
 8000a48:	4a5b      	ldr	r2, [pc, #364]	@ (8000bb8 <GPIO_Init+0x180>)
 8000a4a:	f043 0301 	orr.w	r3, r3, #1
 8000a4e:	6613      	str	r3, [r2, #96]	@ 0x60

    // 1. Pin mode
    if(pGPIOHandle->GPIO_PinConfig.GPIO_PinMode <= GPIO_MODE_ANALOG)
 8000a50:	687b      	ldr	r3, [r7, #4]
 8000a52:	795b      	ldrb	r3, [r3, #5]
 8000a54:	2b03      	cmp	r3, #3
 8000a56:	d820      	bhi.n	8000a9a <GPIO_Init+0x62>
    {
        temp = (pGPIOHandle->GPIO_PinConfig.GPIO_PinMode
 8000a58:	687b      	ldr	r3, [r7, #4]
 8000a5a:	795b      	ldrb	r3, [r3, #5]
 8000a5c:	461a      	mov	r2, r3
                << (2 * pGPIOHandle->GPIO_PinConfig.GPIO_PinNumber));
 8000a5e:	687b      	ldr	r3, [r7, #4]
 8000a60:	791b      	ldrb	r3, [r3, #4]
 8000a62:	005b      	lsls	r3, r3, #1
 8000a64:	fa02 f303 	lsl.w	r3, r2, r3
        temp = (pGPIOHandle->GPIO_PinConfig.GPIO_PinMode
 8000a68:	617b      	str	r3, [r7, #20]

        pGPIOHandle->pGPIOx->MODER &= ~(0x3 << (2 * pGPIOHandle->GPIO_PinConfig.GPIO_PinNumber));
 8000a6a:	687b      	ldr	r3, [r7, #4]
 8000a6c:	681b      	ldr	r3, [r3, #0]
 8000a6e:	681a      	ldr	r2, [r3, #0]
 8000a70:	687b      	ldr	r3, [r7, #4]
 8000a72:	791b      	ldrb	r3, [r3, #4]
 8000a74:	005b      	lsls	r3, r3, #1
 8000a76:	2103      	movs	r1, #3
 8000a78:	fa01 f303 	lsl.w	r3, r1, r3
 8000a7c:	43db      	mvns	r3, r3
 8000a7e:	4619      	mov	r1, r3
 8000a80:	687b      	ldr	r3, [r7, #4]
 8000a82:	681b      	ldr	r3, [r3, #0]
 8000a84:	400a      	ands	r2, r1
 8000a86:	601a      	str	r2, [r3, #0]
        pGPIOHandle->pGPIOx->MODER |= temp;
 8000a88:	687b      	ldr	r3, [r7, #4]
 8000a8a:	681b      	ldr	r3, [r3, #0]
 8000a8c:	6819      	ldr	r1, [r3, #0]
 8000a8e:	687b      	ldr	r3, [r7, #4]
 8000a90:	681b      	ldr	r3, [r3, #0]
 8000a92:	697a      	ldr	r2, [r7, #20]
 8000a94:	430a      	orrs	r2, r1
 8000a96:	601a      	str	r2, [r3, #0]
 8000a98:	e0cf      	b.n	8000c3a <GPIO_Init+0x202>
    }
    else
    {
        // Interrupt configuration
        uint8_t pin = pGPIOHandle->GPIO_PinConfig.GPIO_PinNumber;
 8000a9a:	687b      	ldr	r3, [r7, #4]
 8000a9c:	791b      	ldrb	r3, [r3, #4]
 8000a9e:	74fb      	strb	r3, [r7, #19]

        if(pGPIOHandle->GPIO_PinConfig.GPIO_PinMode == GPIO_MODE_IT_FT){
 8000aa0:	687b      	ldr	r3, [r7, #4]
 8000aa2:	795b      	ldrb	r3, [r3, #5]
 8000aa4:	2b04      	cmp	r3, #4
 8000aa6:	d115      	bne.n	8000ad4 <GPIO_Init+0x9c>
            EXTI->FTSR1 |= (1 << pin);
 8000aa8:	4b44      	ldr	r3, [pc, #272]	@ (8000bbc <GPIO_Init+0x184>)
 8000aaa:	68db      	ldr	r3, [r3, #12]
 8000aac:	7cfa      	ldrb	r2, [r7, #19]
 8000aae:	2101      	movs	r1, #1
 8000ab0:	fa01 f202 	lsl.w	r2, r1, r2
 8000ab4:	4611      	mov	r1, r2
 8000ab6:	4a41      	ldr	r2, [pc, #260]	@ (8000bbc <GPIO_Init+0x184>)
 8000ab8:	430b      	orrs	r3, r1
 8000aba:	60d3      	str	r3, [r2, #12]
            EXTI->RTSR1 &= ~(1 << pin);
 8000abc:	4b3f      	ldr	r3, [pc, #252]	@ (8000bbc <GPIO_Init+0x184>)
 8000abe:	689b      	ldr	r3, [r3, #8]
 8000ac0:	7cfa      	ldrb	r2, [r7, #19]
 8000ac2:	2101      	movs	r1, #1
 8000ac4:	fa01 f202 	lsl.w	r2, r1, r2
 8000ac8:	43d2      	mvns	r2, r2
 8000aca:	4611      	mov	r1, r2
 8000acc:	4a3b      	ldr	r2, [pc, #236]	@ (8000bbc <GPIO_Init+0x184>)
 8000ace:	400b      	ands	r3, r1
 8000ad0:	6093      	str	r3, [r2, #8]
 8000ad2:	e031      	b.n	8000b38 <GPIO_Init+0x100>
        }
        else if(pGPIOHandle->GPIO_PinConfig.GPIO_PinMode == GPIO_MODE_IT_RT){
 8000ad4:	687b      	ldr	r3, [r7, #4]
 8000ad6:	795b      	ldrb	r3, [r3, #5]
 8000ad8:	2b05      	cmp	r3, #5
 8000ada:	d115      	bne.n	8000b08 <GPIO_Init+0xd0>
            EXTI->RTSR1 |= (1 << pin);
 8000adc:	4b37      	ldr	r3, [pc, #220]	@ (8000bbc <GPIO_Init+0x184>)
 8000ade:	689b      	ldr	r3, [r3, #8]
 8000ae0:	7cfa      	ldrb	r2, [r7, #19]
 8000ae2:	2101      	movs	r1, #1
 8000ae4:	fa01 f202 	lsl.w	r2, r1, r2
 8000ae8:	4611      	mov	r1, r2
 8000aea:	4a34      	ldr	r2, [pc, #208]	@ (8000bbc <GPIO_Init+0x184>)
 8000aec:	430b      	orrs	r3, r1
 8000aee:	6093      	str	r3, [r2, #8]
            EXTI->FTSR1 &= ~(1 << pin);
 8000af0:	4b32      	ldr	r3, [pc, #200]	@ (8000bbc <GPIO_Init+0x184>)
 8000af2:	68db      	ldr	r3, [r3, #12]
 8000af4:	7cfa      	ldrb	r2, [r7, #19]
 8000af6:	2101      	movs	r1, #1
 8000af8:	fa01 f202 	lsl.w	r2, r1, r2
 8000afc:	43d2      	mvns	r2, r2
 8000afe:	4611      	mov	r1, r2
 8000b00:	4a2e      	ldr	r2, [pc, #184]	@ (8000bbc <GPIO_Init+0x184>)
 8000b02:	400b      	ands	r3, r1
 8000b04:	60d3      	str	r3, [r2, #12]
 8000b06:	e017      	b.n	8000b38 <GPIO_Init+0x100>
        }
        else if(pGPIOHandle->GPIO_PinConfig.GPIO_PinMode == GPIO_MODE_IT_RFT){
 8000b08:	687b      	ldr	r3, [r7, #4]
 8000b0a:	795b      	ldrb	r3, [r3, #5]
 8000b0c:	2b06      	cmp	r3, #6
 8000b0e:	d113      	bne.n	8000b38 <GPIO_Init+0x100>
            EXTI->FTSR1 |= (1 << pin);
 8000b10:	4b2a      	ldr	r3, [pc, #168]	@ (8000bbc <GPIO_Init+0x184>)
 8000b12:	68db      	ldr	r3, [r3, #12]
 8000b14:	7cfa      	ldrb	r2, [r7, #19]
 8000b16:	2101      	movs	r1, #1
 8000b18:	fa01 f202 	lsl.w	r2, r1, r2
 8000b1c:	4611      	mov	r1, r2
 8000b1e:	4a27      	ldr	r2, [pc, #156]	@ (8000bbc <GPIO_Init+0x184>)
 8000b20:	430b      	orrs	r3, r1
 8000b22:	60d3      	str	r3, [r2, #12]
            EXTI->RTSR1 |= (1 << pin);
 8000b24:	4b25      	ldr	r3, [pc, #148]	@ (8000bbc <GPIO_Init+0x184>)
 8000b26:	689b      	ldr	r3, [r3, #8]
 8000b28:	7cfa      	ldrb	r2, [r7, #19]
 8000b2a:	2101      	movs	r1, #1
 8000b2c:	fa01 f202 	lsl.w	r2, r1, r2
 8000b30:	4611      	mov	r1, r2
 8000b32:	4a22      	ldr	r2, [pc, #136]	@ (8000bbc <GPIO_Init+0x184>)
 8000b34:	430b      	orrs	r3, r1
 8000b36:	6093      	str	r3, [r2, #8]
        }

        uint8_t temp1 = pin / 4;
 8000b38:	7cfb      	ldrb	r3, [r7, #19]
 8000b3a:	089b      	lsrs	r3, r3, #2
 8000b3c:	74bb      	strb	r3, [r7, #18]
        uint8_t temp2 = pin % 4;
 8000b3e:	7cfb      	ldrb	r3, [r7, #19]
 8000b40:	f003 0303 	and.w	r3, r3, #3
 8000b44:	747b      	strb	r3, [r7, #17]

        uint8_t portcode = GPIO_BASEADDR_TO_CODE(pGPIOHandle->pGPIOx);
 8000b46:	687b      	ldr	r3, [r7, #4]
 8000b48:	681b      	ldr	r3, [r3, #0]
 8000b4a:	f1b3 4f90 	cmp.w	r3, #1207959552	@ 0x48000000
 8000b4e:	d045      	beq.n	8000bdc <GPIO_Init+0x1a4>
 8000b50:	687b      	ldr	r3, [r7, #4]
 8000b52:	681b      	ldr	r3, [r3, #0]
 8000b54:	4a1a      	ldr	r2, [pc, #104]	@ (8000bc0 <GPIO_Init+0x188>)
 8000b56:	4293      	cmp	r3, r2
 8000b58:	d02b      	beq.n	8000bb2 <GPIO_Init+0x17a>
 8000b5a:	687b      	ldr	r3, [r7, #4]
 8000b5c:	681b      	ldr	r3, [r3, #0]
 8000b5e:	4a19      	ldr	r2, [pc, #100]	@ (8000bc4 <GPIO_Init+0x18c>)
 8000b60:	4293      	cmp	r3, r2
 8000b62:	d024      	beq.n	8000bae <GPIO_Init+0x176>
 8000b64:	687b      	ldr	r3, [r7, #4]
 8000b66:	681b      	ldr	r3, [r3, #0]
 8000b68:	4a17      	ldr	r2, [pc, #92]	@ (8000bc8 <GPIO_Init+0x190>)
 8000b6a:	4293      	cmp	r3, r2
 8000b6c:	d01d      	beq.n	8000baa <GPIO_Init+0x172>
 8000b6e:	687b      	ldr	r3, [r7, #4]
 8000b70:	681b      	ldr	r3, [r3, #0]
 8000b72:	4a16      	ldr	r2, [pc, #88]	@ (8000bcc <GPIO_Init+0x194>)
 8000b74:	4293      	cmp	r3, r2
 8000b76:	d016      	beq.n	8000ba6 <GPIO_Init+0x16e>
 8000b78:	687b      	ldr	r3, [r7, #4]
 8000b7a:	681b      	ldr	r3, [r3, #0]
 8000b7c:	4a14      	ldr	r2, [pc, #80]	@ (8000bd0 <GPIO_Init+0x198>)
 8000b7e:	4293      	cmp	r3, r2
 8000b80:	d00f      	beq.n	8000ba2 <GPIO_Init+0x16a>
 8000b82:	687b      	ldr	r3, [r7, #4]
 8000b84:	681b      	ldr	r3, [r3, #0]
 8000b86:	4a13      	ldr	r2, [pc, #76]	@ (8000bd4 <GPIO_Init+0x19c>)
 8000b88:	4293      	cmp	r3, r2
 8000b8a:	d008      	beq.n	8000b9e <GPIO_Init+0x166>
 8000b8c:	687b      	ldr	r3, [r7, #4]
 8000b8e:	681b      	ldr	r3, [r3, #0]
 8000b90:	4a11      	ldr	r2, [pc, #68]	@ (8000bd8 <GPIO_Init+0x1a0>)
 8000b92:	4293      	cmp	r3, r2
 8000b94:	d101      	bne.n	8000b9a <GPIO_Init+0x162>
 8000b96:	2307      	movs	r3, #7
 8000b98:	e021      	b.n	8000bde <GPIO_Init+0x1a6>
 8000b9a:	2300      	movs	r3, #0
 8000b9c:	e01f      	b.n	8000bde <GPIO_Init+0x1a6>
 8000b9e:	2306      	movs	r3, #6
 8000ba0:	e01d      	b.n	8000bde <GPIO_Init+0x1a6>
 8000ba2:	2305      	movs	r3, #5
 8000ba4:	e01b      	b.n	8000bde <GPIO_Init+0x1a6>
 8000ba6:	2304      	movs	r3, #4
 8000ba8:	e019      	b.n	8000bde <GPIO_Init+0x1a6>
 8000baa:	2303      	movs	r3, #3
 8000bac:	e017      	b.n	8000bde <GPIO_Init+0x1a6>
 8000bae:	2302      	movs	r3, #2
 8000bb0:	e015      	b.n	8000bde <GPIO_Init+0x1a6>
 8000bb2:	2301      	movs	r3, #1
 8000bb4:	e013      	b.n	8000bde <GPIO_Init+0x1a6>
 8000bb6:	bf00      	nop
 8000bb8:	40021000 	.word	0x40021000
 8000bbc:	40010400 	.word	0x40010400
 8000bc0:	48000400 	.word	0x48000400
 8000bc4:	48000800 	.word	0x48000800
 8000bc8:	48000c00 	.word	0x48000c00
 8000bcc:	48001000 	.word	0x48001000
 8000bd0:	48001400 	.word	0x48001400
 8000bd4:	48001800 	.word	0x48001800
 8000bd8:	48001c00 	.word	0x48001c00
 8000bdc:	2300      	movs	r3, #0
 8000bde:	743b      	strb	r3, [r7, #16]

        SYSCFG->EXTICR[temp1] &= ~(0xF << (4 * temp2));
 8000be0:	4a62      	ldr	r2, [pc, #392]	@ (8000d6c <GPIO_Init+0x334>)
 8000be2:	7cbb      	ldrb	r3, [r7, #18]
 8000be4:	3302      	adds	r3, #2
 8000be6:	f852 2023 	ldr.w	r2, [r2, r3, lsl #2]
 8000bea:	7c7b      	ldrb	r3, [r7, #17]
 8000bec:	009b      	lsls	r3, r3, #2
 8000bee:	210f      	movs	r1, #15
 8000bf0:	fa01 f303 	lsl.w	r3, r1, r3
 8000bf4:	43db      	mvns	r3, r3
 8000bf6:	4618      	mov	r0, r3
 8000bf8:	495c      	ldr	r1, [pc, #368]	@ (8000d6c <GPIO_Init+0x334>)
 8000bfa:	7cbb      	ldrb	r3, [r7, #18]
 8000bfc:	4002      	ands	r2, r0
 8000bfe:	3302      	adds	r3, #2
 8000c00:	f841 2023 	str.w	r2, [r1, r3, lsl #2]
        SYSCFG->EXTICR[temp1] |=  (portcode << (4 * temp2));
 8000c04:	4a59      	ldr	r2, [pc, #356]	@ (8000d6c <GPIO_Init+0x334>)
 8000c06:	7cbb      	ldrb	r3, [r7, #18]
 8000c08:	3302      	adds	r3, #2
 8000c0a:	f852 2023 	ldr.w	r2, [r2, r3, lsl #2]
 8000c0e:	7c39      	ldrb	r1, [r7, #16]
 8000c10:	7c7b      	ldrb	r3, [r7, #17]
 8000c12:	009b      	lsls	r3, r3, #2
 8000c14:	fa01 f303 	lsl.w	r3, r1, r3
 8000c18:	4618      	mov	r0, r3
 8000c1a:	4954      	ldr	r1, [pc, #336]	@ (8000d6c <GPIO_Init+0x334>)
 8000c1c:	7cbb      	ldrb	r3, [r7, #18]
 8000c1e:	4302      	orrs	r2, r0
 8000c20:	3302      	adds	r3, #2
 8000c22:	f841 2023 	str.w	r2, [r1, r3, lsl #2]

        EXTI->IMR1 |= (1 << pin);
 8000c26:	4b52      	ldr	r3, [pc, #328]	@ (8000d70 <GPIO_Init+0x338>)
 8000c28:	681b      	ldr	r3, [r3, #0]
 8000c2a:	7cfa      	ldrb	r2, [r7, #19]
 8000c2c:	2101      	movs	r1, #1
 8000c2e:	fa01 f202 	lsl.w	r2, r1, r2
 8000c32:	4611      	mov	r1, r2
 8000c34:	4a4e      	ldr	r2, [pc, #312]	@ (8000d70 <GPIO_Init+0x338>)
 8000c36:	430b      	orrs	r3, r1
 8000c38:	6013      	str	r3, [r2, #0]
    }

    // 2. Speed
    temp = (pGPIOHandle->GPIO_PinConfig.GPIO_PinSpeed
 8000c3a:	687b      	ldr	r3, [r7, #4]
 8000c3c:	799b      	ldrb	r3, [r3, #6]
 8000c3e:	461a      	mov	r2, r3
            << (2 * pGPIOHandle->GPIO_PinConfig.GPIO_PinNumber));
 8000c40:	687b      	ldr	r3, [r7, #4]
 8000c42:	791b      	ldrb	r3, [r3, #4]
 8000c44:	005b      	lsls	r3, r3, #1
 8000c46:	fa02 f303 	lsl.w	r3, r2, r3
    temp = (pGPIOHandle->GPIO_PinConfig.GPIO_PinSpeed
 8000c4a:	617b      	str	r3, [r7, #20]

    pGPIOHandle->pGPIOx->OSPEEDR &= ~(0x3 << (2 * pGPIOHandle->GPIO_PinConfig.GPIO_PinNumber));
 8000c4c:	687b      	ldr	r3, [r7, #4]
 8000c4e:	681b      	ldr	r3, [r3, #0]
 8000c50:	689a      	ldr	r2, [r3, #8]
 8000c52:	687b      	ldr	r3, [r7, #4]
 8000c54:	791b      	ldrb	r3, [r3, #4]
 8000c56:	005b      	lsls	r3, r3, #1
 8000c58:	2103      	movs	r1, #3
 8000c5a:	fa01 f303 	lsl.w	r3, r1, r3
 8000c5e:	43db      	mvns	r3, r3
 8000c60:	4619      	mov	r1, r3
 8000c62:	687b      	ldr	r3, [r7, #4]
 8000c64:	681b      	ldr	r3, [r3, #0]
 8000c66:	400a      	ands	r2, r1
 8000c68:	609a      	str	r2, [r3, #8]
    pGPIOHandle->pGPIOx->OSPEEDR |= temp;
 8000c6a:	687b      	ldr	r3, [r7, #4]
 8000c6c:	681b      	ldr	r3, [r3, #0]
 8000c6e:	6899      	ldr	r1, [r3, #8]
 8000c70:	687b      	ldr	r3, [r7, #4]
 8000c72:	681b      	ldr	r3, [r3, #0]
 8000c74:	697a      	ldr	r2, [r7, #20]
 8000c76:	430a      	orrs	r2, r1
 8000c78:	609a      	str	r2, [r3, #8]

    // 3. Pull-up/down
    temp = (pGPIOHandle->GPIO_PinConfig.GPIO_PinPuPdControl
 8000c7a:	687b      	ldr	r3, [r7, #4]
 8000c7c:	79db      	ldrb	r3, [r3, #7]
 8000c7e:	461a      	mov	r2, r3
            << (2 * pGPIOHandle->GPIO_PinConfig.GPIO_PinNumber));
 8000c80:	687b      	ldr	r3, [r7, #4]
 8000c82:	791b      	ldrb	r3, [r3, #4]
 8000c84:	005b      	lsls	r3, r3, #1
 8000c86:	fa02 f303 	lsl.w	r3, r2, r3
    temp = (pGPIOHandle->GPIO_PinConfig.GPIO_PinPuPdControl
 8000c8a:	617b      	str	r3, [r7, #20]

    pGPIOHandle->pGPIOx->PUPDR &= ~(0x3 << (2 * pGPIOHandle->GPIO_PinConfig.GPIO_PinNumber));
 8000c8c:	687b      	ldr	r3, [r7, #4]
 8000c8e:	681b      	ldr	r3, [r3, #0]
 8000c90:	68da      	ldr	r2, [r3, #12]
 8000c92:	687b      	ldr	r3, [r7, #4]
 8000c94:	791b      	ldrb	r3, [r3, #4]
 8000c96:	005b      	lsls	r3, r3, #1
 8000c98:	2103      	movs	r1, #3
 8000c9a:	fa01 f303 	lsl.w	r3, r1, r3
 8000c9e:	43db      	mvns	r3, r3
 8000ca0:	4619      	mov	r1, r3
 8000ca2:	687b      	ldr	r3, [r7, #4]
 8000ca4:	681b      	ldr	r3, [r3, #0]
 8000ca6:	400a      	ands	r2, r1
 8000ca8:	60da      	str	r2, [r3, #12]
    pGPIOHandle->pGPIOx->PUPDR |= temp;
 8000caa:	687b      	ldr	r3, [r7, #4]
 8000cac:	681b      	ldr	r3, [r3, #0]
 8000cae:	68d9      	ldr	r1, [r3, #12]
 8000cb0:	687b      	ldr	r3, [r7, #4]
 8000cb2:	681b      	ldr	r3, [r3, #0]
 8000cb4:	697a      	ldr	r2, [r7, #20]
 8000cb6:	430a      	orrs	r2, r1
 8000cb8:	60da      	str	r2, [r3, #12]

    // 4. Output type
    temp = (pGPIOHandle->GPIO_PinConfig.GPIO_PinOPType
 8000cba:	687b      	ldr	r3, [r7, #4]
 8000cbc:	7a1b      	ldrb	r3, [r3, #8]
 8000cbe:	461a      	mov	r2, r3
            << pGPIOHandle->GPIO_PinConfig.GPIO_PinNumber);
 8000cc0:	687b      	ldr	r3, [r7, #4]
 8000cc2:	791b      	ldrb	r3, [r3, #4]
 8000cc4:	fa02 f303 	lsl.w	r3, r2, r3
    temp = (pGPIOHandle->GPIO_PinConfig.GPIO_PinOPType
 8000cc8:	617b      	str	r3, [r7, #20]

    pGPIOHandle->pGPIOx->OTYPER &= ~(0x1 << pGPIOHandle->GPIO_PinConfig.GPIO_PinNumber);
 8000cca:	687b      	ldr	r3, [r7, #4]
 8000ccc:	681b      	ldr	r3, [r3, #0]
 8000cce:	685a      	ldr	r2, [r3, #4]
 8000cd0:	687b      	ldr	r3, [r7, #4]
 8000cd2:	791b      	ldrb	r3, [r3, #4]
 8000cd4:	4619      	mov	r1, r3
 8000cd6:	2301      	movs	r3, #1
 8000cd8:	408b      	lsls	r3, r1
 8000cda:	43db      	mvns	r3, r3
 8000cdc:	4619      	mov	r1, r3
 8000cde:	687b      	ldr	r3, [r7, #4]
 8000ce0:	681b      	ldr	r3, [r3, #0]
 8000ce2:	400a      	ands	r2, r1
 8000ce4:	605a      	str	r2, [r3, #4]
    pGPIOHandle->pGPIOx->OTYPER |= temp;
 8000ce6:	687b      	ldr	r3, [r7, #4]
 8000ce8:	681b      	ldr	r3, [r3, #0]
 8000cea:	6859      	ldr	r1, [r3, #4]
 8000cec:	687b      	ldr	r3, [r7, #4]
 8000cee:	681b      	ldr	r3, [r3, #0]
 8000cf0:	697a      	ldr	r2, [r7, #20]
 8000cf2:	430a      	orrs	r2, r1
 8000cf4:	605a      	str	r2, [r3, #4]

    // 5. Alternate function
    if(pGPIOHandle->GPIO_PinConfig.GPIO_PinMode == GPIO_MODE_ALTFN)
 8000cf6:	687b      	ldr	r3, [r7, #4]
 8000cf8:	795b      	ldrb	r3, [r3, #5]
 8000cfa:	2b02      	cmp	r3, #2
 8000cfc:	d131      	bne.n	8000d62 <GPIO_Init+0x32a>
    {
        uint8_t afr_reg = pGPIOHandle->GPIO_PinConfig.GPIO_PinNumber / 8;
 8000cfe:	687b      	ldr	r3, [r7, #4]
 8000d00:	791b      	ldrb	r3, [r3, #4]
 8000d02:	08db      	lsrs	r3, r3, #3
 8000d04:	73fb      	strb	r3, [r7, #15]
        uint8_t afr_pos = pGPIOHandle->GPIO_PinConfig.GPIO_PinNumber % 8;
 8000d06:	687b      	ldr	r3, [r7, #4]
 8000d08:	791b      	ldrb	r3, [r3, #4]
 8000d0a:	f003 0307 	and.w	r3, r3, #7
 8000d0e:	73bb      	strb	r3, [r7, #14]

        pGPIOHandle->pGPIOx->AFR[afr_reg] &= ~(0xF << (4 * afr_pos));
 8000d10:	687b      	ldr	r3, [r7, #4]
 8000d12:	681b      	ldr	r3, [r3, #0]
 8000d14:	7bfa      	ldrb	r2, [r7, #15]
 8000d16:	3208      	adds	r2, #8
 8000d18:	f853 1022 	ldr.w	r1, [r3, r2, lsl #2]
 8000d1c:	7bbb      	ldrb	r3, [r7, #14]
 8000d1e:	009b      	lsls	r3, r3, #2
 8000d20:	220f      	movs	r2, #15
 8000d22:	fa02 f303 	lsl.w	r3, r2, r3
 8000d26:	43db      	mvns	r3, r3
 8000d28:	4618      	mov	r0, r3
 8000d2a:	687b      	ldr	r3, [r7, #4]
 8000d2c:	681b      	ldr	r3, [r3, #0]
 8000d2e:	7bfa      	ldrb	r2, [r7, #15]
 8000d30:	4001      	ands	r1, r0
 8000d32:	3208      	adds	r2, #8
 8000d34:	f843 1022 	str.w	r1, [r3, r2, lsl #2]
        pGPIOHandle->pGPIOx->AFR[afr_reg] |=
 8000d38:	687b      	ldr	r3, [r7, #4]
 8000d3a:	681b      	ldr	r3, [r3, #0]
 8000d3c:	7bfa      	ldrb	r2, [r7, #15]
 8000d3e:	3208      	adds	r2, #8
 8000d40:	f853 1022 	ldr.w	r1, [r3, r2, lsl #2]
                (pGPIOHandle->GPIO_PinConfig.GPIO_PinAltFunMode << (4 * afr_pos));
 8000d44:	687b      	ldr	r3, [r7, #4]
 8000d46:	7a5b      	ldrb	r3, [r3, #9]
 8000d48:	461a      	mov	r2, r3
 8000d4a:	7bbb      	ldrb	r3, [r7, #14]
 8000d4c:	009b      	lsls	r3, r3, #2
 8000d4e:	fa02 f303 	lsl.w	r3, r2, r3
 8000d52:	4618      	mov	r0, r3
        pGPIOHandle->pGPIOx->AFR[afr_reg] |=
 8000d54:	687b      	ldr	r3, [r7, #4]
 8000d56:	681b      	ldr	r3, [r3, #0]
 8000d58:	7bfa      	ldrb	r2, [r7, #15]
 8000d5a:	4301      	orrs	r1, r0
 8000d5c:	3208      	adds	r2, #8
 8000d5e:	f843 1022 	str.w	r1, [r3, r2, lsl #2]
    }
}
 8000d62:	bf00      	nop
 8000d64:	371c      	adds	r7, #28
 8000d66:	46bd      	mov	sp, r7
 8000d68:	bc80      	pop	{r7}
 8000d6a:	4770      	bx	lr
 8000d6c:	40010000 	.word	0x40010000
 8000d70:	40010400 	.word	0x40010400

08000d74 <GPIO_ReadFromInputPin>:
	else if(pGPIOx==GPIOH){ GPIOH_REG_RESET(); }
}


// I/O Functions
uint8_t GPIO_ReadFromInputPin(GPIO_RegDef_t *pGPIOx, uint8_t GPIO_PinNumber){
 8000d74:	b480      	push	{r7}
 8000d76:	b083      	sub	sp, #12
 8000d78:	af00      	add	r7, sp, #0
 8000d7a:	6078      	str	r0, [r7, #4]
 8000d7c:	460b      	mov	r3, r1
 8000d7e:	70fb      	strb	r3, [r7, #3]
	return (uint8_t)((pGPIOx->IDR >> GPIO_PinNumber) & 0x1);
 8000d80:	687b      	ldr	r3, [r7, #4]
 8000d82:	691a      	ldr	r2, [r3, #16]
 8000d84:	78fb      	ldrb	r3, [r7, #3]
 8000d86:	fa22 f303 	lsr.w	r3, r2, r3
 8000d8a:	b2db      	uxtb	r3, r3
 8000d8c:	f003 0301 	and.w	r3, r3, #1
 8000d90:	b2db      	uxtb	r3, r3
}
 8000d92:	4618      	mov	r0, r3
 8000d94:	370c      	adds	r7, #12
 8000d96:	46bd      	mov	sp, r7
 8000d98:	bc80      	pop	{r7}
 8000d9a:	4770      	bx	lr

08000d9c <GPIO_WriteToOutputPin>:

uint16_t GPIO_ReadFromInputPort(GPIO_RegDef_t *pGPIOx){
	return (uint16_t)(pGPIOx->IDR);
}

void GPIO_WriteToOutputPin(GPIO_RegDef_t *pGPIOx, uint8_t GPIO_PinNumber, uint32_t value){
 8000d9c:	b480      	push	{r7}
 8000d9e:	b085      	sub	sp, #20
 8000da0:	af00      	add	r7, sp, #0
 8000da2:	60f8      	str	r0, [r7, #12]
 8000da4:	460b      	mov	r3, r1
 8000da6:	607a      	str	r2, [r7, #4]
 8000da8:	72fb      	strb	r3, [r7, #11]
	if(value == GPIO_PIN_SET)
 8000daa:	687b      	ldr	r3, [r7, #4]
 8000dac:	2b01      	cmp	r3, #1
 8000dae:	d109      	bne.n	8000dc4 <GPIO_WriteToOutputPin+0x28>
		pGPIOx->ODR |=  (1 << GPIO_PinNumber);
 8000db0:	68fb      	ldr	r3, [r7, #12]
 8000db2:	695b      	ldr	r3, [r3, #20]
 8000db4:	7afa      	ldrb	r2, [r7, #11]
 8000db6:	2101      	movs	r1, #1
 8000db8:	fa01 f202 	lsl.w	r2, r1, r2
 8000dbc:	431a      	orrs	r2, r3
 8000dbe:	68fb      	ldr	r3, [r7, #12]
 8000dc0:	615a      	str	r2, [r3, #20]
	else
		pGPIOx->ODR &= ~(1 << GPIO_PinNumber);
}
 8000dc2:	e009      	b.n	8000dd8 <GPIO_WriteToOutputPin+0x3c>
		pGPIOx->ODR &= ~(1 << GPIO_PinNumber);
 8000dc4:	68fb      	ldr	r3, [r7, #12]
 8000dc6:	695b      	ldr	r3, [r3, #20]
 8000dc8:	7afa      	ldrb	r2, [r7, #11]
 8000dca:	2101      	movs	r1, #1
 8000dcc:	fa01 f202 	lsl.w	r2, r1, r2
 8000dd0:	43d2      	mvns	r2, r2
 8000dd2:	401a      	ands	r2, r3
 8000dd4:	68fb      	ldr	r3, [r7, #12]
 8000dd6:	615a      	str	r2, [r3, #20]
}
 8000dd8:	bf00      	nop
 8000dda:	3714      	adds	r7, #20
 8000ddc:	46bd      	mov	sp, r7
 8000dde:	bc80      	pop	{r7}
 8000de0:	4770      	bx	lr
	...

08000de4 <USART_PeriClockControl>:
#include "stm32l476xx_usart_driver.h"

/* Peripheral Clock Control */
void USART_PeriClockControl(USART_TypeDef *pUSARTx, uint8_t EnOrDi)
{
 8000de4:	b480      	push	{r7}
 8000de6:	b083      	sub	sp, #12
 8000de8:	af00      	add	r7, sp, #0
 8000dea:	6078      	str	r0, [r7, #4]
 8000dec:	460b      	mov	r3, r1
 8000dee:	70fb      	strb	r3, [r7, #3]
    if(EnOrDi == ENABLE)
 8000df0:	78fb      	ldrb	r3, [r7, #3]
 8000df2:	2b01      	cmp	r3, #1
 8000df4:	d136      	bne.n	8000e64 <USART_PeriClockControl+0x80>
    {
        if(pUSARTx == USART1) RCC->APB2ENR |= (1U<<14); /* USART1_PCLK_EN */
 8000df6:	687b      	ldr	r3, [r7, #4]
 8000df8:	4a38      	ldr	r2, [pc, #224]	@ (8000edc <USART_PeriClockControl+0xf8>)
 8000dfa:	4293      	cmp	r3, r2
 8000dfc:	d106      	bne.n	8000e0c <USART_PeriClockControl+0x28>
 8000dfe:	4b38      	ldr	r3, [pc, #224]	@ (8000ee0 <USART_PeriClockControl+0xfc>)
 8000e00:	6e1b      	ldr	r3, [r3, #96]	@ 0x60
 8000e02:	4a37      	ldr	r2, [pc, #220]	@ (8000ee0 <USART_PeriClockControl+0xfc>)
 8000e04:	f443 4380 	orr.w	r3, r3, #16384	@ 0x4000
 8000e08:	6613      	str	r3, [r2, #96]	@ 0x60
        else if(pUSARTx == USART2) RCC->APB1ENR1 &= ~(1U<<17);
        else if(pUSARTx == USART3) RCC->APB1ENR1 &= ~(1U<<18);
        else if(pUSARTx == UART4)  RCC->APB1ENR1 &= ~(1U<<19);
        else if(pUSARTx == UART5)  RCC->APB1ENR1 &= ~(1U<<20);
    }
}
 8000e0a:	e061      	b.n	8000ed0 <USART_PeriClockControl+0xec>
        else if(pUSARTx == USART2) RCC->APB1ENR1 |= (1U<<17);
 8000e0c:	687b      	ldr	r3, [r7, #4]
 8000e0e:	4a35      	ldr	r2, [pc, #212]	@ (8000ee4 <USART_PeriClockControl+0x100>)
 8000e10:	4293      	cmp	r3, r2
 8000e12:	d106      	bne.n	8000e22 <USART_PeriClockControl+0x3e>
 8000e14:	4b32      	ldr	r3, [pc, #200]	@ (8000ee0 <USART_PeriClockControl+0xfc>)
 8000e16:	6d9b      	ldr	r3, [r3, #88]	@ 0x58
 8000e18:	4a31      	ldr	r2, [pc, #196]	@ (8000ee0 <USART_PeriClockControl+0xfc>)
 8000e1a:	f443 3300 	orr.w	r3, r3, #131072	@ 0x20000
 8000e1e:	6593      	str	r3, [r2, #88]	@ 0x58
}
 8000e20:	e056      	b.n	8000ed0 <USART_PeriClockControl+0xec>
        else if(pUSARTx == USART3) RCC->APB1ENR1 |= (1U<<18);
 8000e22:	687b      	ldr	r3, [r7, #4]
 8000e24:	4a30      	ldr	r2, [pc, #192]	@ (8000ee8 <USART_PeriClockControl+0x104>)
 8000e26:	4293      	cmp	r3, r2
 8000e28:	d106      	bne.n	8000e38 <USART_PeriClockControl+0x54>
 8000e2a:	4b2d      	ldr	r3, [pc, #180]	@ (8000ee0 <USART_PeriClockControl+0xfc>)
 8000e2c:	6d9b      	ldr	r3, [r3, #88]	@ 0x58
 8000e2e:	4a2c      	ldr	r2, [pc, #176]	@ (8000ee0 <USART_PeriClockControl+0xfc>)
 8000e30:	f443 2380 	orr.w	r3, r3, #262144	@ 0x40000
 8000e34:	6593      	str	r3, [r2, #88]	@ 0x58
}
 8000e36:	e04b      	b.n	8000ed0 <USART_PeriClockControl+0xec>
        else if(pUSARTx == UART4)  RCC->APB1ENR1 |= (1U<<19);
 8000e38:	687b      	ldr	r3, [r7, #4]
 8000e3a:	4a2c      	ldr	r2, [pc, #176]	@ (8000eec <USART_PeriClockControl+0x108>)
 8000e3c:	4293      	cmp	r3, r2
 8000e3e:	d106      	bne.n	8000e4e <USART_PeriClockControl+0x6a>
 8000e40:	4b27      	ldr	r3, [pc, #156]	@ (8000ee0 <USART_PeriClockControl+0xfc>)
 8000e42:	6d9b      	ldr	r3, [r3, #88]	@ 0x58
 8000e44:	4a26      	ldr	r2, [pc, #152]	@ (8000ee0 <USART_PeriClockControl+0xfc>)
 8000e46:	f443 2300 	orr.w	r3, r3, #524288	@ 0x80000
 8000e4a:	6593      	str	r3, [r2, #88]	@ 0x58
}
 8000e4c:	e040      	b.n	8000ed0 <USART_PeriClockControl+0xec>
        else if(pUSARTx == UART5)  RCC->APB1ENR1 |= (1U<<20);
 8000e4e:	687b      	ldr	r3, [r7, #4]
 8000e50:	4a27      	ldr	r2, [pc, #156]	@ (8000ef0 <USART_PeriClockControl+0x10c>)
 8000e52:	4293      	cmp	r3, r2
 8000e54:	d13c      	bne.n	8000ed0 <USART_PeriClockControl+0xec>
 8000e56:	4b22      	ldr	r3, [pc, #136]	@ (8000ee0 <USART_PeriClockControl+0xfc>)
 8000e58:	6d9b      	ldr	r3, [r3, #88]	@ 0x58
 8000e5a:	4a21      	ldr	r2, [pc, #132]	@ (8000ee0 <USART_PeriClockControl+0xfc>)
 8000e5c:	f443 1380 	orr.w	r3, r3, #1048576	@ 0x100000
 8000e60:	6593      	str	r3, [r2, #88]	@ 0x58
}
 8000e62:	e035      	b.n	8000ed0 <USART_PeriClockControl+0xec>
        if(pUSARTx == USART1) RCC->APB2ENR &= ~(1U<<14);
 8000e64:	687b      	ldr	r3, [r7, #4]
 8000e66:	4a1d      	ldr	r2, [pc, #116]	@ (8000edc <USART_PeriClockControl+0xf8>)
 8000e68:	4293      	cmp	r3, r2
 8000e6a:	d106      	bne.n	8000e7a <USART_PeriClockControl+0x96>
 8000e6c:	4b1c      	ldr	r3, [pc, #112]	@ (8000ee0 <USART_PeriClockControl+0xfc>)
 8000e6e:	6e1b      	ldr	r3, [r3, #96]	@ 0x60
 8000e70:	4a1b      	ldr	r2, [pc, #108]	@ (8000ee0 <USART_PeriClockControl+0xfc>)
 8000e72:	f423 4380 	bic.w	r3, r3, #16384	@ 0x4000
 8000e76:	6613      	str	r3, [r2, #96]	@ 0x60
}
 8000e78:	e02a      	b.n	8000ed0 <USART_PeriClockControl+0xec>
        else if(pUSARTx == USART2) RCC->APB1ENR1 &= ~(1U<<17);
 8000e7a:	687b      	ldr	r3, [r7, #4]
 8000e7c:	4a19      	ldr	r2, [pc, #100]	@ (8000ee4 <USART_PeriClockControl+0x100>)
 8000e7e:	4293      	cmp	r3, r2
 8000e80:	d106      	bne.n	8000e90 <USART_PeriClockControl+0xac>
 8000e82:	4b17      	ldr	r3, [pc, #92]	@ (8000ee0 <USART_PeriClockControl+0xfc>)
 8000e84:	6d9b      	ldr	r3, [r3, #88]	@ 0x58
 8000e86:	4a16      	ldr	r2, [pc, #88]	@ (8000ee0 <USART_PeriClockControl+0xfc>)
 8000e88:	f423 3300 	bic.w	r3, r3, #131072	@ 0x20000
 8000e8c:	6593      	str	r3, [r2, #88]	@ 0x58
}
 8000e8e:	e01f      	b.n	8000ed0 <USART_PeriClockControl+0xec>
        else if(pUSARTx == USART3) RCC->APB1ENR1 &= ~(1U<<18);
 8000e90:	687b      	ldr	r3, [r7, #4]
 8000e92:	4a15      	ldr	r2, [pc, #84]	@ (8000ee8 <USART_PeriClockControl+0x104>)
 8000e94:	4293      	cmp	r3, r2
 8000e96:	d106      	bne.n	8000ea6 <USART_PeriClockControl+0xc2>
 8000e98:	4b11      	ldr	r3, [pc, #68]	@ (8000ee0 <USART_PeriClockControl+0xfc>)
 8000e9a:	6d9b      	ldr	r3, [r3, #88]	@ 0x58
 8000e9c:	4a10      	ldr	r2, [pc, #64]	@ (8000ee0 <USART_PeriClockControl+0xfc>)
 8000e9e:	f423 2380 	bic.w	r3, r3, #262144	@ 0x40000
 8000ea2:	6593      	str	r3, [r2, #88]	@ 0x58
}
 8000ea4:	e014      	b.n	8000ed0 <USART_PeriClockControl+0xec>
        else if(pUSARTx == UART4)  RCC->APB1ENR1 &= ~(1U<<19);
 8000ea6:	687b      	ldr	r3, [r7, #4]
 8000ea8:	4a10      	ldr	r2, [pc, #64]	@ (8000eec <USART_PeriClockControl+0x108>)
 8000eaa:	4293      	cmp	r3, r2
 8000eac:	d106      	bne.n	8000ebc <USART_PeriClockControl+0xd8>
 8000eae:	4b0c      	ldr	r3, [pc, #48]	@ (8000ee0 <USART_PeriClockControl+0xfc>)
 8000eb0:	6d9b      	ldr	r3, [r3, #88]	@ 0x58
 8000eb2:	4a0b      	ldr	r2, [pc, #44]	@ (8000ee0 <USART_PeriClockControl+0xfc>)
 8000eb4:	f423 2300 	bic.w	r3, r3, #524288	@ 0x80000
 8000eb8:	6593      	str	r3, [r2, #88]	@ 0x58
}
 8000eba:	e009      	b.n	8000ed0 <USART_PeriClockControl+0xec>
        else if(pUSARTx == UART5)  RCC->APB1ENR1 &= ~(1U<<20);
 8000ebc:	687b      	ldr	r3, [r7, #4]
 8000ebe:	4a0c      	ldr	r2, [pc, #48]	@ (8000ef0 <USART_PeriClockControl+0x10c>)
 8000ec0:	4293      	cmp	r3, r2
 8000ec2:	d105      	bne.n	8000ed0 <USART_PeriClockControl+0xec>
 8000ec4:	4b06      	ldr	r3, [pc, #24]	@ (8000ee0 <USART_PeriClockControl+0xfc>)
 8000ec6:	6d9b      	ldr	r3, [r3, #88]	@ 0x58
 8000ec8:	4a05      	ldr	r2, [pc, #20]	@ (8000ee0 <USART_PeriClockControl+0xfc>)
 8000eca:	f423 1380 	bic.w	r3, r3, #1048576	@ 0x100000
 8000ece:	6593      	str	r3, [r2, #88]	@ 0x58
}
 8000ed0:	bf00      	nop
 8000ed2:	370c      	adds	r7, #12
 8000ed4:	46bd      	mov	sp, r7
 8000ed6:	bc80      	pop	{r7}
 8000ed8:	4770      	bx	lr
 8000eda:	bf00      	nop
 8000edc:	40013800 	.word	0x40013800
 8000ee0:	40021000 	.word	0x40021000
 8000ee4:	40004400 	.word	0x40004400
 8000ee8:	40004800 	.word	0x40004800
 8000eec:	40004c00 	.word	0x40004c00
 8000ef0:	40005000 	.word	0x40005000

08000ef4 <RCC_GetPCLKFreq>:

/* Basic RCC PCLK helper  assume SYSCLK 80MHz if PLL configured */
static uint32_t RCC_GetPCLKFreq(USART_TypeDef *pUSARTx)
{
 8000ef4:	b480      	push	{r7}
 8000ef6:	b089      	sub	sp, #36	@ 0x24
 8000ef8:	af00      	add	r7, sp, #0
 8000efa:	6078      	str	r0, [r7, #4]
    /* crude but practical: detect APB prescalers (from CFGR) */
    uint32_t sysclk = 80000000U;
 8000efc:	4b1b      	ldr	r3, [pc, #108]	@ (8000f6c <RCC_GetPCLKFreq+0x78>)
 8000efe:	61fb      	str	r3, [r7, #28]
    uint32_t hclk = sysclk;
 8000f00:	69fb      	ldr	r3, [r7, #28]
 8000f02:	61bb      	str	r3, [r7, #24]
    uint32_t ppre1 = (RCC->CFGR >> 8) & 0x7;
 8000f04:	4b1a      	ldr	r3, [pc, #104]	@ (8000f70 <RCC_GetPCLKFreq+0x7c>)
 8000f06:	689b      	ldr	r3, [r3, #8]
 8000f08:	0a1b      	lsrs	r3, r3, #8
 8000f0a:	f003 0307 	and.w	r3, r3, #7
 8000f0e:	617b      	str	r3, [r7, #20]
    uint32_t ppre2 = (RCC->CFGR >> 11) & 0x7;
 8000f10:	4b17      	ldr	r3, [pc, #92]	@ (8000f70 <RCC_GetPCLKFreq+0x7c>)
 8000f12:	689b      	ldr	r3, [r3, #8]
 8000f14:	0adb      	lsrs	r3, r3, #11
 8000f16:	f003 0307 	and.w	r3, r3, #7
 8000f1a:	613b      	str	r3, [r7, #16]
    uint32_t apb1_div = (ppre1 < 4) ? 1U : (1U << (ppre1 - 3));
 8000f1c:	697b      	ldr	r3, [r7, #20]
 8000f1e:	2b03      	cmp	r3, #3
 8000f20:	d905      	bls.n	8000f2e <RCC_GetPCLKFreq+0x3a>
 8000f22:	697b      	ldr	r3, [r7, #20]
 8000f24:	3b03      	subs	r3, #3
 8000f26:	2201      	movs	r2, #1
 8000f28:	fa02 f303 	lsl.w	r3, r2, r3
 8000f2c:	e000      	b.n	8000f30 <RCC_GetPCLKFreq+0x3c>
 8000f2e:	2301      	movs	r3, #1
 8000f30:	60fb      	str	r3, [r7, #12]
    uint32_t apb2_div = (ppre2 < 4) ? 1U : (1U << (ppre2 - 3));
 8000f32:	693b      	ldr	r3, [r7, #16]
 8000f34:	2b03      	cmp	r3, #3
 8000f36:	d905      	bls.n	8000f44 <RCC_GetPCLKFreq+0x50>
 8000f38:	693b      	ldr	r3, [r7, #16]
 8000f3a:	3b03      	subs	r3, #3
 8000f3c:	2201      	movs	r2, #1
 8000f3e:	fa02 f303 	lsl.w	r3, r2, r3
 8000f42:	e000      	b.n	8000f46 <RCC_GetPCLKFreq+0x52>
 8000f44:	2301      	movs	r3, #1
 8000f46:	60bb      	str	r3, [r7, #8]
    if(pUSARTx == USART1) return hclk / apb2_div;
 8000f48:	687b      	ldr	r3, [r7, #4]
 8000f4a:	4a0a      	ldr	r2, [pc, #40]	@ (8000f74 <RCC_GetPCLKFreq+0x80>)
 8000f4c:	4293      	cmp	r3, r2
 8000f4e:	d104      	bne.n	8000f5a <RCC_GetPCLKFreq+0x66>
 8000f50:	69ba      	ldr	r2, [r7, #24]
 8000f52:	68bb      	ldr	r3, [r7, #8]
 8000f54:	fbb2 f3f3 	udiv	r3, r2, r3
 8000f58:	e003      	b.n	8000f62 <RCC_GetPCLKFreq+0x6e>
    return hclk / apb1_div;
 8000f5a:	69ba      	ldr	r2, [r7, #24]
 8000f5c:	68fb      	ldr	r3, [r7, #12]
 8000f5e:	fbb2 f3f3 	udiv	r3, r2, r3
}
 8000f62:	4618      	mov	r0, r3
 8000f64:	3724      	adds	r7, #36	@ 0x24
 8000f66:	46bd      	mov	sp, r7
 8000f68:	bc80      	pop	{r7}
 8000f6a:	4770      	bx	lr
 8000f6c:	04c4b400 	.word	0x04c4b400
 8000f70:	40021000 	.word	0x40021000
 8000f74:	40013800 	.word	0x40013800

08000f78 <USART_Init>:

/* Init */
void USART_Init(USART_Handle_t *pUSARTHandle)
{
 8000f78:	b580      	push	{r7, lr}
 8000f7a:	b086      	sub	sp, #24
 8000f7c:	af00      	add	r7, sp, #0
 8000f7e:	6078      	str	r0, [r7, #4]
    uint32_t tempCR1 = 0, tempCR2 = 0, tempCR3 = 0;
 8000f80:	2300      	movs	r3, #0
 8000f82:	617b      	str	r3, [r7, #20]
 8000f84:	2300      	movs	r3, #0
 8000f86:	60fb      	str	r3, [r7, #12]
 8000f88:	2300      	movs	r3, #0
 8000f8a:	613b      	str	r3, [r7, #16]

    USART_PeriClockControl(pUSARTHandle->pUSARTx, ENABLE);
 8000f8c:	687b      	ldr	r3, [r7, #4]
 8000f8e:	681b      	ldr	r3, [r3, #0]
 8000f90:	2101      	movs	r1, #1
 8000f92:	4618      	mov	r0, r3
 8000f94:	f7ff ff26 	bl	8000de4 <USART_PeriClockControl>
    USART_PeripheralControl(pUSARTHandle->pUSARTx, DISABLE);
 8000f98:	687b      	ldr	r3, [r7, #4]
 8000f9a:	681b      	ldr	r3, [r3, #0]
 8000f9c:	2100      	movs	r1, #0
 8000f9e:	4618      	mov	r0, r3
 8000fa0:	f000 f8c1 	bl	8001126 <USART_PeripheralControl>

    /* Mode */
    if(pUSARTHandle->USART_Config.USART_Mode == USART_MODE_ONLY_RX) tempCR1 |= USART_CR1_RE;
 8000fa4:	687b      	ldr	r3, [r7, #4]
 8000fa6:	791b      	ldrb	r3, [r3, #4]
 8000fa8:	2b01      	cmp	r3, #1
 8000faa:	d104      	bne.n	8000fb6 <USART_Init+0x3e>
 8000fac:	697b      	ldr	r3, [r7, #20]
 8000fae:	f043 0304 	orr.w	r3, r3, #4
 8000fb2:	617b      	str	r3, [r7, #20]
 8000fb4:	e00c      	b.n	8000fd0 <USART_Init+0x58>
    else if(pUSARTHandle->USART_Config.USART_Mode == USART_MODE_ONLY_TX) tempCR1 |= USART_CR1_TE;
 8000fb6:	687b      	ldr	r3, [r7, #4]
 8000fb8:	791b      	ldrb	r3, [r3, #4]
 8000fba:	2b00      	cmp	r3, #0
 8000fbc:	d104      	bne.n	8000fc8 <USART_Init+0x50>
 8000fbe:	697b      	ldr	r3, [r7, #20]
 8000fc0:	f043 0308 	orr.w	r3, r3, #8
 8000fc4:	617b      	str	r3, [r7, #20]
 8000fc6:	e003      	b.n	8000fd0 <USART_Init+0x58>
    else tempCR1 |= (USART_CR1_TE | USART_CR1_RE);
 8000fc8:	697b      	ldr	r3, [r7, #20]
 8000fca:	f043 030c 	orr.w	r3, r3, #12
 8000fce:	617b      	str	r3, [r7, #20]

    /* Word length */
    if(pUSARTHandle->USART_Config.USART_WordLength == USART_WORDLEN_8BITS) tempCR1 &= ~(USART_CR1_M0);
 8000fd0:	687b      	ldr	r3, [r7, #4]
 8000fd2:	7b5b      	ldrb	r3, [r3, #13]
 8000fd4:	2b00      	cmp	r3, #0
 8000fd6:	d104      	bne.n	8000fe2 <USART_Init+0x6a>
 8000fd8:	697b      	ldr	r3, [r7, #20]
 8000fda:	f423 5380 	bic.w	r3, r3, #4096	@ 0x1000
 8000fde:	617b      	str	r3, [r7, #20]
 8000fe0:	e003      	b.n	8000fea <USART_Init+0x72>
    else tempCR1 |= USART_CR1_M0;
 8000fe2:	697b      	ldr	r3, [r7, #20]
 8000fe4:	f443 5380 	orr.w	r3, r3, #4096	@ 0x1000
 8000fe8:	617b      	str	r3, [r7, #20]

    /* Parity */
    if(pUSARTHandle->USART_Config.USART_ParityControl == USART_PARITY_DISABLE) tempCR1 &= ~USART_CR1_PCE;
 8000fea:	687b      	ldr	r3, [r7, #4]
 8000fec:	7b9b      	ldrb	r3, [r3, #14]
 8000fee:	2b00      	cmp	r3, #0
 8000ff0:	d104      	bne.n	8000ffc <USART_Init+0x84>
 8000ff2:	697b      	ldr	r3, [r7, #20]
 8000ff4:	f423 6380 	bic.w	r3, r3, #1024	@ 0x400
 8000ff8:	617b      	str	r3, [r7, #20]
 8000ffa:	e00c      	b.n	8001016 <USART_Init+0x9e>
    else if(pUSARTHandle->USART_Config.USART_ParityControl == USART_PARITY_EN_EVEN) tempCR1 |= USART_CR1_PCE;
 8000ffc:	687b      	ldr	r3, [r7, #4]
 8000ffe:	7b9b      	ldrb	r3, [r3, #14]
 8001000:	2b01      	cmp	r3, #1
 8001002:	d104      	bne.n	800100e <USART_Init+0x96>
 8001004:	697b      	ldr	r3, [r7, #20]
 8001006:	f443 6380 	orr.w	r3, r3, #1024	@ 0x400
 800100a:	617b      	str	r3, [r7, #20]
 800100c:	e003      	b.n	8001016 <USART_Init+0x9e>
    else tempCR1 |= (USART_CR1_PCE | USART_CR1_PS);
 800100e:	697b      	ldr	r3, [r7, #20]
 8001010:	f443 63c0 	orr.w	r3, r3, #1536	@ 0x600
 8001014:	617b      	str	r3, [r7, #20]

    pUSARTHandle->pUSARTx->CR1 = tempCR1;
 8001016:	687b      	ldr	r3, [r7, #4]
 8001018:	681b      	ldr	r3, [r3, #0]
 800101a:	697a      	ldr	r2, [r7, #20]
 800101c:	601a      	str	r2, [r3, #0]

    /* Stop bits */
    tempCR2 &= ~USART_CR2_STOP;
 800101e:	68fb      	ldr	r3, [r7, #12]
 8001020:	f423 5340 	bic.w	r3, r3, #12288	@ 0x3000
 8001024:	60fb      	str	r3, [r7, #12]
    tempCR2 |= (pUSARTHandle->USART_Config.USART_NoOfStopBits << USART_CR2_STOP_Pos);
 8001026:	687b      	ldr	r3, [r7, #4]
 8001028:	7b1b      	ldrb	r3, [r3, #12]
 800102a:	031b      	lsls	r3, r3, #12
 800102c:	68fa      	ldr	r2, [r7, #12]
 800102e:	4313      	orrs	r3, r2
 8001030:	60fb      	str	r3, [r7, #12]
    pUSARTHandle->pUSARTx->CR2 = tempCR2;
 8001032:	687b      	ldr	r3, [r7, #4]
 8001034:	681b      	ldr	r3, [r3, #0]
 8001036:	68fa      	ldr	r2, [r7, #12]
 8001038:	605a      	str	r2, [r3, #4]

    /* CR3 */
    if(pUSARTHandle->USART_Config.USART_HWFlowControl == USART_HW_FLOW_CTRL_NONE) tempCR3 &= ~(USART_CR3_CTSE | USART_CR3_RTSE);
 800103a:	687b      	ldr	r3, [r7, #4]
 800103c:	7bdb      	ldrb	r3, [r3, #15]
 800103e:	2b00      	cmp	r3, #0
 8001040:	d104      	bne.n	800104c <USART_Init+0xd4>
 8001042:	693b      	ldr	r3, [r7, #16]
 8001044:	f423 7340 	bic.w	r3, r3, #768	@ 0x300
 8001048:	613b      	str	r3, [r7, #16]
 800104a:	e015      	b.n	8001078 <USART_Init+0x100>
    else if(pUSARTHandle->USART_Config.USART_HWFlowControl == USART_HW_FLOW_CTRL_CTS) tempCR3 |= USART_CR3_CTSE;
 800104c:	687b      	ldr	r3, [r7, #4]
 800104e:	7bdb      	ldrb	r3, [r3, #15]
 8001050:	2b01      	cmp	r3, #1
 8001052:	d104      	bne.n	800105e <USART_Init+0xe6>
 8001054:	693b      	ldr	r3, [r7, #16]
 8001056:	f443 7300 	orr.w	r3, r3, #512	@ 0x200
 800105a:	613b      	str	r3, [r7, #16]
 800105c:	e00c      	b.n	8001078 <USART_Init+0x100>
    else if(pUSARTHandle->USART_Config.USART_HWFlowControl == USART_HW_FLOW_CTRL_RTS) tempCR3 |= USART_CR3_RTSE;
 800105e:	687b      	ldr	r3, [r7, #4]
 8001060:	7bdb      	ldrb	r3, [r3, #15]
 8001062:	2b02      	cmp	r3, #2
 8001064:	d104      	bne.n	8001070 <USART_Init+0xf8>
 8001066:	693b      	ldr	r3, [r7, #16]
 8001068:	f443 7380 	orr.w	r3, r3, #256	@ 0x100
 800106c:	613b      	str	r3, [r7, #16]
 800106e:	e003      	b.n	8001078 <USART_Init+0x100>
    else tempCR3 |= (USART_CR3_CTSE | USART_CR3_RTSE);
 8001070:	693b      	ldr	r3, [r7, #16]
 8001072:	f443 7340 	orr.w	r3, r3, #768	@ 0x300
 8001076:	613b      	str	r3, [r7, #16]
    pUSARTHandle->pUSARTx->CR3 = tempCR3;
 8001078:	687b      	ldr	r3, [r7, #4]
 800107a:	681b      	ldr	r3, [r3, #0]
 800107c:	693a      	ldr	r2, [r7, #16]
 800107e:	609a      	str	r2, [r3, #8]

    /* Baud */
    USART_SetBaudRate(pUSARTHandle->pUSARTx, pUSARTHandle->USART_Config.USART_Baud);
 8001080:	687b      	ldr	r3, [r7, #4]
 8001082:	681a      	ldr	r2, [r3, #0]
 8001084:	687b      	ldr	r3, [r7, #4]
 8001086:	689b      	ldr	r3, [r3, #8]
 8001088:	4619      	mov	r1, r3
 800108a:	4610      	mov	r0, r2
 800108c:	f000 f866 	bl	800115c <USART_SetBaudRate>

    USART_PeripheralControl(pUSARTHandle->pUSARTx, ENABLE);
 8001090:	687b      	ldr	r3, [r7, #4]
 8001092:	681b      	ldr	r3, [r3, #0]
 8001094:	2101      	movs	r1, #1
 8001096:	4618      	mov	r0, r3
 8001098:	f000 f845 	bl	8001126 <USART_PeripheralControl>
}
 800109c:	bf00      	nop
 800109e:	3718      	adds	r7, #24
 80010a0:	46bd      	mov	sp, r7
 80010a2:	bd80      	pop	{r7, pc}

080010a4 <USART_SendData>:
    else if(pUSARTx == USART3) { RCC->APB1ENR1 |= (1U<<18); RCC->APB1RSTR1 |= (1U<<18); RCC->APB1RSTR1 &= ~(1U<<18); }
}

/* Blocking send */
void USART_SendData(USART_Handle_t *pUSARTHandle, uint8_t *pTxBuffer, uint32_t len)
{
 80010a4:	b580      	push	{r7, lr}
 80010a6:	b084      	sub	sp, #16
 80010a8:	af00      	add	r7, sp, #0
 80010aa:	60f8      	str	r0, [r7, #12]
 80010ac:	60b9      	str	r1, [r7, #8]
 80010ae:	607a      	str	r2, [r7, #4]
    while(len > 0)
 80010b0:	e014      	b.n	80010dc <USART_SendData+0x38>
    {
        while(!(USART_GetFlagStatus(pUSARTHandle->pUSARTx, USART_FLAG_TXE)));
 80010b2:	bf00      	nop
 80010b4:	68fb      	ldr	r3, [r7, #12]
 80010b6:	681b      	ldr	r3, [r3, #0]
 80010b8:	2180      	movs	r1, #128	@ 0x80
 80010ba:	4618      	mov	r0, r3
 80010bc:	f000 f820 	bl	8001100 <USART_GetFlagStatus>
 80010c0:	4603      	mov	r3, r0
 80010c2:	2b00      	cmp	r3, #0
 80010c4:	d0f6      	beq.n	80010b4 <USART_SendData+0x10>
        pUSARTHandle->pUSARTx->TDR = *pTxBuffer;
 80010c6:	68bb      	ldr	r3, [r7, #8]
 80010c8:	781a      	ldrb	r2, [r3, #0]
 80010ca:	68fb      	ldr	r3, [r7, #12]
 80010cc:	681b      	ldr	r3, [r3, #0]
 80010ce:	629a      	str	r2, [r3, #40]	@ 0x28
        pTxBuffer++;
 80010d0:	68bb      	ldr	r3, [r7, #8]
 80010d2:	3301      	adds	r3, #1
 80010d4:	60bb      	str	r3, [r7, #8]
        len--;
 80010d6:	687b      	ldr	r3, [r7, #4]
 80010d8:	3b01      	subs	r3, #1
 80010da:	607b      	str	r3, [r7, #4]
    while(len > 0)
 80010dc:	687b      	ldr	r3, [r7, #4]
 80010de:	2b00      	cmp	r3, #0
 80010e0:	d1e7      	bne.n	80010b2 <USART_SendData+0xe>
    }
    while(!(USART_GetFlagStatus(pUSARTHandle->pUSARTx, USART_FLAG_TC)));
 80010e2:	bf00      	nop
 80010e4:	68fb      	ldr	r3, [r7, #12]
 80010e6:	681b      	ldr	r3, [r3, #0]
 80010e8:	2140      	movs	r1, #64	@ 0x40
 80010ea:	4618      	mov	r0, r3
 80010ec:	f000 f808 	bl	8001100 <USART_GetFlagStatus>
 80010f0:	4603      	mov	r3, r0
 80010f2:	2b00      	cmp	r3, #0
 80010f4:	d0f6      	beq.n	80010e4 <USART_SendData+0x40>
}
 80010f6:	bf00      	nop
 80010f8:	bf00      	nop
 80010fa:	3710      	adds	r7, #16
 80010fc:	46bd      	mov	sp, r7
 80010fe:	bd80      	pop	{r7, pc}

08001100 <USART_GetFlagStatus>:
    }
}

/* Flag helpers */
uint8_t USART_GetFlagStatus(USART_TypeDef *pUSARTx, uint32_t FlagName)
{
 8001100:	b480      	push	{r7}
 8001102:	b083      	sub	sp, #12
 8001104:	af00      	add	r7, sp, #0
 8001106:	6078      	str	r0, [r7, #4]
 8001108:	6039      	str	r1, [r7, #0]
    return ( (pUSARTx->ISR & FlagName) ? SET : RESET );
 800110a:	687b      	ldr	r3, [r7, #4]
 800110c:	69da      	ldr	r2, [r3, #28]
 800110e:	683b      	ldr	r3, [r7, #0]
 8001110:	4013      	ands	r3, r2
 8001112:	2b00      	cmp	r3, #0
 8001114:	bf14      	ite	ne
 8001116:	2301      	movne	r3, #1
 8001118:	2300      	moveq	r3, #0
 800111a:	b2db      	uxtb	r3, r3
}
 800111c:	4618      	mov	r0, r3
 800111e:	370c      	adds	r7, #12
 8001120:	46bd      	mov	sp, r7
 8001122:	bc80      	pop	{r7}
 8001124:	4770      	bx	lr

08001126 <USART_PeripheralControl>:
    pUSARTx->ICR = FlagName;
}

/* Peripheral control */
void USART_PeripheralControl(USART_TypeDef *pUSARTx, uint8_t EnOrDi)
{
 8001126:	b480      	push	{r7}
 8001128:	b083      	sub	sp, #12
 800112a:	af00      	add	r7, sp, #0
 800112c:	6078      	str	r0, [r7, #4]
 800112e:	460b      	mov	r3, r1
 8001130:	70fb      	strb	r3, [r7, #3]
    if(EnOrDi == ENABLE) pUSARTx->CR1 |= USART_CR1_UE;
 8001132:	78fb      	ldrb	r3, [r7, #3]
 8001134:	2b01      	cmp	r3, #1
 8001136:	d106      	bne.n	8001146 <USART_PeripheralControl+0x20>
 8001138:	687b      	ldr	r3, [r7, #4]
 800113a:	681b      	ldr	r3, [r3, #0]
 800113c:	f043 0201 	orr.w	r2, r3, #1
 8001140:	687b      	ldr	r3, [r7, #4]
 8001142:	601a      	str	r2, [r3, #0]
    else pUSARTx->CR1 &= ~USART_CR1_UE;
}
 8001144:	e005      	b.n	8001152 <USART_PeripheralControl+0x2c>
    else pUSARTx->CR1 &= ~USART_CR1_UE;
 8001146:	687b      	ldr	r3, [r7, #4]
 8001148:	681b      	ldr	r3, [r3, #0]
 800114a:	f023 0201 	bic.w	r2, r3, #1
 800114e:	687b      	ldr	r3, [r7, #4]
 8001150:	601a      	str	r2, [r3, #0]
}
 8001152:	bf00      	nop
 8001154:	370c      	adds	r7, #12
 8001156:	46bd      	mov	sp, r7
 8001158:	bc80      	pop	{r7}
 800115a:	4770      	bx	lr

0800115c <USART_SetBaudRate>:

/* Baud */
void USART_SetBaudRate(USART_TypeDef *pUSARTx, uint32_t BaudRate)
{
 800115c:	b580      	push	{r7, lr}
 800115e:	b084      	sub	sp, #16
 8001160:	af00      	add	r7, sp, #0
 8001162:	6078      	str	r0, [r7, #4]
 8001164:	6039      	str	r1, [r7, #0]
    uint32_t pclk = RCC_GetPCLKFreq(pUSARTx);
 8001166:	6878      	ldr	r0, [r7, #4]
 8001168:	f7ff fec4 	bl	8000ef4 <RCC_GetPCLKFreq>
 800116c:	60f8      	str	r0, [r7, #12]
    pUSARTx->BRR = (pclk + BaudRate/2U) / BaudRate;
 800116e:	683b      	ldr	r3, [r7, #0]
 8001170:	085a      	lsrs	r2, r3, #1
 8001172:	68fb      	ldr	r3, [r7, #12]
 8001174:	441a      	add	r2, r3
 8001176:	683b      	ldr	r3, [r7, #0]
 8001178:	fbb2 f2f3 	udiv	r2, r2, r3
 800117c:	687b      	ldr	r3, [r7, #4]
 800117e:	60da      	str	r2, [r3, #12]
}
 8001180:	bf00      	nop
 8001182:	3710      	adds	r7, #16
 8001184:	46bd      	mov	sp, r7
 8001186:	bd80      	pop	{r7, pc}

08001188 <siprintf>:
 8001188:	b40e      	push	{r1, r2, r3}
 800118a:	b510      	push	{r4, lr}
 800118c:	b09d      	sub	sp, #116	@ 0x74
 800118e:	ab1f      	add	r3, sp, #124	@ 0x7c
 8001190:	9002      	str	r0, [sp, #8]
 8001192:	9006      	str	r0, [sp, #24]
 8001194:	f06f 4100 	mvn.w	r1, #2147483648	@ 0x80000000
 8001198:	480a      	ldr	r0, [pc, #40]	@ (80011c4 <siprintf+0x3c>)
 800119a:	9107      	str	r1, [sp, #28]
 800119c:	9104      	str	r1, [sp, #16]
 800119e:	490a      	ldr	r1, [pc, #40]	@ (80011c8 <siprintf+0x40>)
 80011a0:	f853 2b04 	ldr.w	r2, [r3], #4
 80011a4:	9105      	str	r1, [sp, #20]
 80011a6:	2400      	movs	r4, #0
 80011a8:	a902      	add	r1, sp, #8
 80011aa:	6800      	ldr	r0, [r0, #0]
 80011ac:	9301      	str	r3, [sp, #4]
 80011ae:	941b      	str	r4, [sp, #108]	@ 0x6c
 80011b0:	f000 f98c 	bl	80014cc <_svfiprintf_r>
 80011b4:	9b02      	ldr	r3, [sp, #8]
 80011b6:	701c      	strb	r4, [r3, #0]
 80011b8:	b01d      	add	sp, #116	@ 0x74
 80011ba:	e8bd 4010 	ldmia.w	sp!, {r4, lr}
 80011be:	b003      	add	sp, #12
 80011c0:	4770      	bx	lr
 80011c2:	bf00      	nop
 80011c4:	20000004 	.word	0x20000004
 80011c8:	ffff0208 	.word	0xffff0208

080011cc <__errno>:
 80011cc:	4b01      	ldr	r3, [pc, #4]	@ (80011d4 <__errno+0x8>)
 80011ce:	6818      	ldr	r0, [r3, #0]
 80011d0:	4770      	bx	lr
 80011d2:	bf00      	nop
 80011d4:	20000004 	.word	0x20000004

080011d8 <__libc_init_array>:
 80011d8:	b570      	push	{r4, r5, r6, lr}
 80011da:	4d0d      	ldr	r5, [pc, #52]	@ (8001210 <__libc_init_array+0x38>)
 80011dc:	4c0d      	ldr	r4, [pc, #52]	@ (8001214 <__libc_init_array+0x3c>)
 80011de:	1b64      	subs	r4, r4, r5
 80011e0:	10a4      	asrs	r4, r4, #2
 80011e2:	2600      	movs	r6, #0
 80011e4:	42a6      	cmp	r6, r4
 80011e6:	d109      	bne.n	80011fc <__libc_init_array+0x24>
 80011e8:	4d0b      	ldr	r5, [pc, #44]	@ (8001218 <__libc_init_array+0x40>)
 80011ea:	4c0c      	ldr	r4, [pc, #48]	@ (800121c <__libc_init_array+0x44>)
 80011ec:	f000 fc64 	bl	8001ab8 <_init>
 80011f0:	1b64      	subs	r4, r4, r5
 80011f2:	10a4      	asrs	r4, r4, #2
 80011f4:	2600      	movs	r6, #0
 80011f6:	42a6      	cmp	r6, r4
 80011f8:	d105      	bne.n	8001206 <__libc_init_array+0x2e>
 80011fa:	bd70      	pop	{r4, r5, r6, pc}
 80011fc:	f855 3b04 	ldr.w	r3, [r5], #4
 8001200:	4798      	blx	r3
 8001202:	3601      	adds	r6, #1
 8001204:	e7ee      	b.n	80011e4 <__libc_init_array+0xc>
 8001206:	f855 3b04 	ldr.w	r3, [r5], #4
 800120a:	4798      	blx	r3
 800120c:	3601      	adds	r6, #1
 800120e:	e7f2      	b.n	80011f6 <__libc_init_array+0x1e>
 8001210:	08001b74 	.word	0x08001b74
 8001214:	08001b74 	.word	0x08001b74
 8001218:	08001b74 	.word	0x08001b74
 800121c:	08001b78 	.word	0x08001b78

08001220 <__retarget_lock_acquire_recursive>:
 8001220:	4770      	bx	lr

08001222 <__retarget_lock_release_recursive>:
 8001222:	4770      	bx	lr

08001224 <_free_r>:
 8001224:	b538      	push	{r3, r4, r5, lr}
 8001226:	4605      	mov	r5, r0
 8001228:	2900      	cmp	r1, #0
 800122a:	d041      	beq.n	80012b0 <_free_r+0x8c>
 800122c:	f851 3c04 	ldr.w	r3, [r1, #-4]
 8001230:	1f0c      	subs	r4, r1, #4
 8001232:	2b00      	cmp	r3, #0
 8001234:	bfb8      	it	lt
 8001236:	18e4      	addlt	r4, r4, r3
 8001238:	f000 f8e0 	bl	80013fc <__malloc_lock>
 800123c:	4a1d      	ldr	r2, [pc, #116]	@ (80012b4 <_free_r+0x90>)
 800123e:	6813      	ldr	r3, [r2, #0]
 8001240:	b933      	cbnz	r3, 8001250 <_free_r+0x2c>
 8001242:	6063      	str	r3, [r4, #4]
 8001244:	6014      	str	r4, [r2, #0]
 8001246:	4628      	mov	r0, r5
 8001248:	e8bd 4038 	ldmia.w	sp!, {r3, r4, r5, lr}
 800124c:	f000 b8dc 	b.w	8001408 <__malloc_unlock>
 8001250:	42a3      	cmp	r3, r4
 8001252:	d908      	bls.n	8001266 <_free_r+0x42>
 8001254:	6820      	ldr	r0, [r4, #0]
 8001256:	1821      	adds	r1, r4, r0
 8001258:	428b      	cmp	r3, r1
 800125a:	bf01      	itttt	eq
 800125c:	6819      	ldreq	r1, [r3, #0]
 800125e:	685b      	ldreq	r3, [r3, #4]
 8001260:	1809      	addeq	r1, r1, r0
 8001262:	6021      	streq	r1, [r4, #0]
 8001264:	e7ed      	b.n	8001242 <_free_r+0x1e>
 8001266:	461a      	mov	r2, r3
 8001268:	685b      	ldr	r3, [r3, #4]
 800126a:	b10b      	cbz	r3, 8001270 <_free_r+0x4c>
 800126c:	42a3      	cmp	r3, r4
 800126e:	d9fa      	bls.n	8001266 <_free_r+0x42>
 8001270:	6811      	ldr	r1, [r2, #0]
 8001272:	1850      	adds	r0, r2, r1
 8001274:	42a0      	cmp	r0, r4
 8001276:	d10b      	bne.n	8001290 <_free_r+0x6c>
 8001278:	6820      	ldr	r0, [r4, #0]
 800127a:	4401      	add	r1, r0
 800127c:	1850      	adds	r0, r2, r1
 800127e:	4283      	cmp	r3, r0
 8001280:	6011      	str	r1, [r2, #0]
 8001282:	d1e0      	bne.n	8001246 <_free_r+0x22>
 8001284:	6818      	ldr	r0, [r3, #0]
 8001286:	685b      	ldr	r3, [r3, #4]
 8001288:	6053      	str	r3, [r2, #4]
 800128a:	4408      	add	r0, r1
 800128c:	6010      	str	r0, [r2, #0]
 800128e:	e7da      	b.n	8001246 <_free_r+0x22>
 8001290:	d902      	bls.n	8001298 <_free_r+0x74>
 8001292:	230c      	movs	r3, #12
 8001294:	602b      	str	r3, [r5, #0]
 8001296:	e7d6      	b.n	8001246 <_free_r+0x22>
 8001298:	6820      	ldr	r0, [r4, #0]
 800129a:	1821      	adds	r1, r4, r0
 800129c:	428b      	cmp	r3, r1
 800129e:	bf04      	itt	eq
 80012a0:	6819      	ldreq	r1, [r3, #0]
 80012a2:	685b      	ldreq	r3, [r3, #4]
 80012a4:	6063      	str	r3, [r4, #4]
 80012a6:	bf04      	itt	eq
 80012a8:	1809      	addeq	r1, r1, r0
 80012aa:	6021      	streq	r1, [r4, #0]
 80012ac:	6054      	str	r4, [r2, #4]
 80012ae:	e7ca      	b.n	8001246 <_free_r+0x22>
 80012b0:	bd38      	pop	{r3, r4, r5, pc}
 80012b2:	bf00      	nop
 80012b4:	200001e0 	.word	0x200001e0

080012b8 <sbrk_aligned>:
 80012b8:	b570      	push	{r4, r5, r6, lr}
 80012ba:	4e0f      	ldr	r6, [pc, #60]	@ (80012f8 <sbrk_aligned+0x40>)
 80012bc:	460c      	mov	r4, r1
 80012be:	6831      	ldr	r1, [r6, #0]
 80012c0:	4605      	mov	r5, r0
 80012c2:	b911      	cbnz	r1, 80012ca <sbrk_aligned+0x12>
 80012c4:	f000 fba4 	bl	8001a10 <_sbrk_r>
 80012c8:	6030      	str	r0, [r6, #0]
 80012ca:	4621      	mov	r1, r4
 80012cc:	4628      	mov	r0, r5
 80012ce:	f000 fb9f 	bl	8001a10 <_sbrk_r>
 80012d2:	1c43      	adds	r3, r0, #1
 80012d4:	d103      	bne.n	80012de <sbrk_aligned+0x26>
 80012d6:	f04f 34ff 	mov.w	r4, #4294967295
 80012da:	4620      	mov	r0, r4
 80012dc:	bd70      	pop	{r4, r5, r6, pc}
 80012de:	1cc4      	adds	r4, r0, #3
 80012e0:	f024 0403 	bic.w	r4, r4, #3
 80012e4:	42a0      	cmp	r0, r4
 80012e6:	d0f8      	beq.n	80012da <sbrk_aligned+0x22>
 80012e8:	1a21      	subs	r1, r4, r0
 80012ea:	4628      	mov	r0, r5
 80012ec:	f000 fb90 	bl	8001a10 <_sbrk_r>
 80012f0:	3001      	adds	r0, #1
 80012f2:	d1f2      	bne.n	80012da <sbrk_aligned+0x22>
 80012f4:	e7ef      	b.n	80012d6 <sbrk_aligned+0x1e>
 80012f6:	bf00      	nop
 80012f8:	200001dc 	.word	0x200001dc

080012fc <_malloc_r>:
 80012fc:	e92d 43f8 	stmdb	sp!, {r3, r4, r5, r6, r7, r8, r9, lr}
 8001300:	1ccd      	adds	r5, r1, #3
 8001302:	f025 0503 	bic.w	r5, r5, #3
 8001306:	3508      	adds	r5, #8
 8001308:	2d0c      	cmp	r5, #12
 800130a:	bf38      	it	cc
 800130c:	250c      	movcc	r5, #12
 800130e:	2d00      	cmp	r5, #0
 8001310:	4606      	mov	r6, r0
 8001312:	db01      	blt.n	8001318 <_malloc_r+0x1c>
 8001314:	42a9      	cmp	r1, r5
 8001316:	d904      	bls.n	8001322 <_malloc_r+0x26>
 8001318:	230c      	movs	r3, #12
 800131a:	6033      	str	r3, [r6, #0]
 800131c:	2000      	movs	r0, #0
 800131e:	e8bd 83f8 	ldmia.w	sp!, {r3, r4, r5, r6, r7, r8, r9, pc}
 8001322:	f8df 80d4 	ldr.w	r8, [pc, #212]	@ 80013f8 <_malloc_r+0xfc>
 8001326:	f000 f869 	bl	80013fc <__malloc_lock>
 800132a:	f8d8 3000 	ldr.w	r3, [r8]
 800132e:	461c      	mov	r4, r3
 8001330:	bb44      	cbnz	r4, 8001384 <_malloc_r+0x88>
 8001332:	4629      	mov	r1, r5
 8001334:	4630      	mov	r0, r6
 8001336:	f7ff ffbf 	bl	80012b8 <sbrk_aligned>
 800133a:	1c43      	adds	r3, r0, #1
 800133c:	4604      	mov	r4, r0
 800133e:	d158      	bne.n	80013f2 <_malloc_r+0xf6>
 8001340:	f8d8 4000 	ldr.w	r4, [r8]
 8001344:	4627      	mov	r7, r4
 8001346:	2f00      	cmp	r7, #0
 8001348:	d143      	bne.n	80013d2 <_malloc_r+0xd6>
 800134a:	2c00      	cmp	r4, #0
 800134c:	d04b      	beq.n	80013e6 <_malloc_r+0xea>
 800134e:	6823      	ldr	r3, [r4, #0]
 8001350:	4639      	mov	r1, r7
 8001352:	4630      	mov	r0, r6
 8001354:	eb04 0903 	add.w	r9, r4, r3
 8001358:	f000 fb5a 	bl	8001a10 <_sbrk_r>
 800135c:	4581      	cmp	r9, r0
 800135e:	d142      	bne.n	80013e6 <_malloc_r+0xea>
 8001360:	6821      	ldr	r1, [r4, #0]
 8001362:	1a6d      	subs	r5, r5, r1
 8001364:	4629      	mov	r1, r5
 8001366:	4630      	mov	r0, r6
 8001368:	f7ff ffa6 	bl	80012b8 <sbrk_aligned>
 800136c:	3001      	adds	r0, #1
 800136e:	d03a      	beq.n	80013e6 <_malloc_r+0xea>
 8001370:	6823      	ldr	r3, [r4, #0]
 8001372:	442b      	add	r3, r5
 8001374:	6023      	str	r3, [r4, #0]
 8001376:	f8d8 3000 	ldr.w	r3, [r8]
 800137a:	685a      	ldr	r2, [r3, #4]
 800137c:	bb62      	cbnz	r2, 80013d8 <_malloc_r+0xdc>
 800137e:	f8c8 7000 	str.w	r7, [r8]
 8001382:	e00f      	b.n	80013a4 <_malloc_r+0xa8>
 8001384:	6822      	ldr	r2, [r4, #0]
 8001386:	1b52      	subs	r2, r2, r5
 8001388:	d420      	bmi.n	80013cc <_malloc_r+0xd0>
 800138a:	2a0b      	cmp	r2, #11
 800138c:	d917      	bls.n	80013be <_malloc_r+0xc2>
 800138e:	1961      	adds	r1, r4, r5
 8001390:	42a3      	cmp	r3, r4
 8001392:	6025      	str	r5, [r4, #0]
 8001394:	bf18      	it	ne
 8001396:	6059      	strne	r1, [r3, #4]
 8001398:	6863      	ldr	r3, [r4, #4]
 800139a:	bf08      	it	eq
 800139c:	f8c8 1000 	streq.w	r1, [r8]
 80013a0:	5162      	str	r2, [r4, r5]
 80013a2:	604b      	str	r3, [r1, #4]
 80013a4:	4630      	mov	r0, r6
 80013a6:	f000 f82f 	bl	8001408 <__malloc_unlock>
 80013aa:	f104 000b 	add.w	r0, r4, #11
 80013ae:	1d23      	adds	r3, r4, #4
 80013b0:	f020 0007 	bic.w	r0, r0, #7
 80013b4:	1ac2      	subs	r2, r0, r3
 80013b6:	bf1c      	itt	ne
 80013b8:	1a1b      	subne	r3, r3, r0
 80013ba:	50a3      	strne	r3, [r4, r2]
 80013bc:	e7af      	b.n	800131e <_malloc_r+0x22>
 80013be:	6862      	ldr	r2, [r4, #4]
 80013c0:	42a3      	cmp	r3, r4
 80013c2:	bf0c      	ite	eq
 80013c4:	f8c8 2000 	streq.w	r2, [r8]
 80013c8:	605a      	strne	r2, [r3, #4]
 80013ca:	e7eb      	b.n	80013a4 <_malloc_r+0xa8>
 80013cc:	4623      	mov	r3, r4
 80013ce:	6864      	ldr	r4, [r4, #4]
 80013d0:	e7ae      	b.n	8001330 <_malloc_r+0x34>
 80013d2:	463c      	mov	r4, r7
 80013d4:	687f      	ldr	r7, [r7, #4]
 80013d6:	e7b6      	b.n	8001346 <_malloc_r+0x4a>
 80013d8:	461a      	mov	r2, r3
 80013da:	685b      	ldr	r3, [r3, #4]
 80013dc:	42a3      	cmp	r3, r4
 80013de:	d1fb      	bne.n	80013d8 <_malloc_r+0xdc>
 80013e0:	2300      	movs	r3, #0
 80013e2:	6053      	str	r3, [r2, #4]
 80013e4:	e7de      	b.n	80013a4 <_malloc_r+0xa8>
 80013e6:	230c      	movs	r3, #12
 80013e8:	6033      	str	r3, [r6, #0]
 80013ea:	4630      	mov	r0, r6
 80013ec:	f000 f80c 	bl	8001408 <__malloc_unlock>
 80013f0:	e794      	b.n	800131c <_malloc_r+0x20>
 80013f2:	6005      	str	r5, [r0, #0]
 80013f4:	e7d6      	b.n	80013a4 <_malloc_r+0xa8>
 80013f6:	bf00      	nop
 80013f8:	200001e0 	.word	0x200001e0

080013fc <__malloc_lock>:
 80013fc:	4801      	ldr	r0, [pc, #4]	@ (8001404 <__malloc_lock+0x8>)
 80013fe:	f7ff bf0f 	b.w	8001220 <__retarget_lock_acquire_recursive>
 8001402:	bf00      	nop
 8001404:	200001d8 	.word	0x200001d8

08001408 <__malloc_unlock>:
 8001408:	4801      	ldr	r0, [pc, #4]	@ (8001410 <__malloc_unlock+0x8>)
 800140a:	f7ff bf0a 	b.w	8001222 <__retarget_lock_release_recursive>
 800140e:	bf00      	nop
 8001410:	200001d8 	.word	0x200001d8

08001414 <__ssputs_r>:
 8001414:	e92d 47f0 	stmdb	sp!, {r4, r5, r6, r7, r8, r9, sl, lr}
 8001418:	688e      	ldr	r6, [r1, #8]
 800141a:	461f      	mov	r7, r3
 800141c:	42be      	cmp	r6, r7
 800141e:	680b      	ldr	r3, [r1, #0]
 8001420:	4682      	mov	sl, r0
 8001422:	460c      	mov	r4, r1
 8001424:	4690      	mov	r8, r2
 8001426:	d82d      	bhi.n	8001484 <__ssputs_r+0x70>
 8001428:	f9b1 200c 	ldrsh.w	r2, [r1, #12]
 800142c:	f412 6f90 	tst.w	r2, #1152	@ 0x480
 8001430:	d026      	beq.n	8001480 <__ssputs_r+0x6c>
 8001432:	6965      	ldr	r5, [r4, #20]
 8001434:	6909      	ldr	r1, [r1, #16]
 8001436:	eb05 0545 	add.w	r5, r5, r5, lsl #1
 800143a:	eba3 0901 	sub.w	r9, r3, r1
 800143e:	eb05 75d5 	add.w	r5, r5, r5, lsr #31
 8001442:	1c7b      	adds	r3, r7, #1
 8001444:	444b      	add	r3, r9
 8001446:	106d      	asrs	r5, r5, #1
 8001448:	429d      	cmp	r5, r3
 800144a:	bf38      	it	cc
 800144c:	461d      	movcc	r5, r3
 800144e:	0553      	lsls	r3, r2, #21
 8001450:	d527      	bpl.n	80014a2 <__ssputs_r+0x8e>
 8001452:	4629      	mov	r1, r5
 8001454:	f7ff ff52 	bl	80012fc <_malloc_r>
 8001458:	4606      	mov	r6, r0
 800145a:	b360      	cbz	r0, 80014b6 <__ssputs_r+0xa2>
 800145c:	6921      	ldr	r1, [r4, #16]
 800145e:	464a      	mov	r2, r9
 8001460:	f000 fae6 	bl	8001a30 <memcpy>
 8001464:	89a3      	ldrh	r3, [r4, #12]
 8001466:	f423 6390 	bic.w	r3, r3, #1152	@ 0x480
 800146a:	f043 0380 	orr.w	r3, r3, #128	@ 0x80
 800146e:	81a3      	strh	r3, [r4, #12]
 8001470:	6126      	str	r6, [r4, #16]
 8001472:	6165      	str	r5, [r4, #20]
 8001474:	444e      	add	r6, r9
 8001476:	eba5 0509 	sub.w	r5, r5, r9
 800147a:	6026      	str	r6, [r4, #0]
 800147c:	60a5      	str	r5, [r4, #8]
 800147e:	463e      	mov	r6, r7
 8001480:	42be      	cmp	r6, r7
 8001482:	d900      	bls.n	8001486 <__ssputs_r+0x72>
 8001484:	463e      	mov	r6, r7
 8001486:	6820      	ldr	r0, [r4, #0]
 8001488:	4632      	mov	r2, r6
 800148a:	4641      	mov	r1, r8
 800148c:	f000 faa6 	bl	80019dc <memmove>
 8001490:	68a3      	ldr	r3, [r4, #8]
 8001492:	1b9b      	subs	r3, r3, r6
 8001494:	60a3      	str	r3, [r4, #8]
 8001496:	6823      	ldr	r3, [r4, #0]
 8001498:	4433      	add	r3, r6
 800149a:	6023      	str	r3, [r4, #0]
 800149c:	2000      	movs	r0, #0
 800149e:	e8bd 87f0 	ldmia.w	sp!, {r4, r5, r6, r7, r8, r9, sl, pc}
 80014a2:	462a      	mov	r2, r5
 80014a4:	f000 fad2 	bl	8001a4c <_realloc_r>
 80014a8:	4606      	mov	r6, r0
 80014aa:	2800      	cmp	r0, #0
 80014ac:	d1e0      	bne.n	8001470 <__ssputs_r+0x5c>
 80014ae:	6921      	ldr	r1, [r4, #16]
 80014b0:	4650      	mov	r0, sl
 80014b2:	f7ff feb7 	bl	8001224 <_free_r>
 80014b6:	230c      	movs	r3, #12
 80014b8:	f8ca 3000 	str.w	r3, [sl]
 80014bc:	89a3      	ldrh	r3, [r4, #12]
 80014be:	f043 0340 	orr.w	r3, r3, #64	@ 0x40
 80014c2:	81a3      	strh	r3, [r4, #12]
 80014c4:	f04f 30ff 	mov.w	r0, #4294967295
 80014c8:	e7e9      	b.n	800149e <__ssputs_r+0x8a>
	...

080014cc <_svfiprintf_r>:
 80014cc:	e92d 4ff0 	stmdb	sp!, {r4, r5, r6, r7, r8, r9, sl, fp, lr}
 80014d0:	4698      	mov	r8, r3
 80014d2:	898b      	ldrh	r3, [r1, #12]
 80014d4:	061b      	lsls	r3, r3, #24
 80014d6:	b09d      	sub	sp, #116	@ 0x74
 80014d8:	4607      	mov	r7, r0
 80014da:	460d      	mov	r5, r1
 80014dc:	4614      	mov	r4, r2
 80014de:	d510      	bpl.n	8001502 <_svfiprintf_r+0x36>
 80014e0:	690b      	ldr	r3, [r1, #16]
 80014e2:	b973      	cbnz	r3, 8001502 <_svfiprintf_r+0x36>
 80014e4:	2140      	movs	r1, #64	@ 0x40
 80014e6:	f7ff ff09 	bl	80012fc <_malloc_r>
 80014ea:	6028      	str	r0, [r5, #0]
 80014ec:	6128      	str	r0, [r5, #16]
 80014ee:	b930      	cbnz	r0, 80014fe <_svfiprintf_r+0x32>
 80014f0:	230c      	movs	r3, #12
 80014f2:	603b      	str	r3, [r7, #0]
 80014f4:	f04f 30ff 	mov.w	r0, #4294967295
 80014f8:	b01d      	add	sp, #116	@ 0x74
 80014fa:	e8bd 8ff0 	ldmia.w	sp!, {r4, r5, r6, r7, r8, r9, sl, fp, pc}
 80014fe:	2340      	movs	r3, #64	@ 0x40
 8001500:	616b      	str	r3, [r5, #20]
 8001502:	2300      	movs	r3, #0
 8001504:	9309      	str	r3, [sp, #36]	@ 0x24
 8001506:	2320      	movs	r3, #32
 8001508:	f88d 3029 	strb.w	r3, [sp, #41]	@ 0x29
 800150c:	f8cd 800c 	str.w	r8, [sp, #12]
 8001510:	2330      	movs	r3, #48	@ 0x30
 8001512:	f8df 819c 	ldr.w	r8, [pc, #412]	@ 80016b0 <_svfiprintf_r+0x1e4>
 8001516:	f88d 302a 	strb.w	r3, [sp, #42]	@ 0x2a
 800151a:	f04f 0901 	mov.w	r9, #1
 800151e:	4623      	mov	r3, r4
 8001520:	469a      	mov	sl, r3
 8001522:	f813 2b01 	ldrb.w	r2, [r3], #1
 8001526:	b10a      	cbz	r2, 800152c <_svfiprintf_r+0x60>
 8001528:	2a25      	cmp	r2, #37	@ 0x25
 800152a:	d1f9      	bne.n	8001520 <_svfiprintf_r+0x54>
 800152c:	ebba 0b04 	subs.w	fp, sl, r4
 8001530:	d00b      	beq.n	800154a <_svfiprintf_r+0x7e>
 8001532:	465b      	mov	r3, fp
 8001534:	4622      	mov	r2, r4
 8001536:	4629      	mov	r1, r5
 8001538:	4638      	mov	r0, r7
 800153a:	f7ff ff6b 	bl	8001414 <__ssputs_r>
 800153e:	3001      	adds	r0, #1
 8001540:	f000 80a7 	beq.w	8001692 <_svfiprintf_r+0x1c6>
 8001544:	9a09      	ldr	r2, [sp, #36]	@ 0x24
 8001546:	445a      	add	r2, fp
 8001548:	9209      	str	r2, [sp, #36]	@ 0x24
 800154a:	f89a 3000 	ldrb.w	r3, [sl]
 800154e:	2b00      	cmp	r3, #0
 8001550:	f000 809f 	beq.w	8001692 <_svfiprintf_r+0x1c6>
 8001554:	2300      	movs	r3, #0
 8001556:	f04f 32ff 	mov.w	r2, #4294967295
 800155a:	e9cd 2305 	strd	r2, r3, [sp, #20]
 800155e:	f10a 0a01 	add.w	sl, sl, #1
 8001562:	9304      	str	r3, [sp, #16]
 8001564:	9307      	str	r3, [sp, #28]
 8001566:	f88d 3053 	strb.w	r3, [sp, #83]	@ 0x53
 800156a:	931a      	str	r3, [sp, #104]	@ 0x68
 800156c:	4654      	mov	r4, sl
 800156e:	2205      	movs	r2, #5
 8001570:	f814 1b01 	ldrb.w	r1, [r4], #1
 8001574:	484e      	ldr	r0, [pc, #312]	@ (80016b0 <_svfiprintf_r+0x1e4>)
 8001576:	f7fe fe33 	bl	80001e0 <memchr>
 800157a:	9a04      	ldr	r2, [sp, #16]
 800157c:	b9d8      	cbnz	r0, 80015b6 <_svfiprintf_r+0xea>
 800157e:	06d0      	lsls	r0, r2, #27
 8001580:	bf44      	itt	mi
 8001582:	2320      	movmi	r3, #32
 8001584:	f88d 3053 	strbmi.w	r3, [sp, #83]	@ 0x53
 8001588:	0711      	lsls	r1, r2, #28
 800158a:	bf44      	itt	mi
 800158c:	232b      	movmi	r3, #43	@ 0x2b
 800158e:	f88d 3053 	strbmi.w	r3, [sp, #83]	@ 0x53
 8001592:	f89a 3000 	ldrb.w	r3, [sl]
 8001596:	2b2a      	cmp	r3, #42	@ 0x2a
 8001598:	d015      	beq.n	80015c6 <_svfiprintf_r+0xfa>
 800159a:	9a07      	ldr	r2, [sp, #28]
 800159c:	4654      	mov	r4, sl
 800159e:	2000      	movs	r0, #0
 80015a0:	f04f 0c0a 	mov.w	ip, #10
 80015a4:	4621      	mov	r1, r4
 80015a6:	f811 3b01 	ldrb.w	r3, [r1], #1
 80015aa:	3b30      	subs	r3, #48	@ 0x30
 80015ac:	2b09      	cmp	r3, #9
 80015ae:	d94b      	bls.n	8001648 <_svfiprintf_r+0x17c>
 80015b0:	b1b0      	cbz	r0, 80015e0 <_svfiprintf_r+0x114>
 80015b2:	9207      	str	r2, [sp, #28]
 80015b4:	e014      	b.n	80015e0 <_svfiprintf_r+0x114>
 80015b6:	eba0 0308 	sub.w	r3, r0, r8
 80015ba:	fa09 f303 	lsl.w	r3, r9, r3
 80015be:	4313      	orrs	r3, r2
 80015c0:	9304      	str	r3, [sp, #16]
 80015c2:	46a2      	mov	sl, r4
 80015c4:	e7d2      	b.n	800156c <_svfiprintf_r+0xa0>
 80015c6:	9b03      	ldr	r3, [sp, #12]
 80015c8:	1d19      	adds	r1, r3, #4
 80015ca:	681b      	ldr	r3, [r3, #0]
 80015cc:	9103      	str	r1, [sp, #12]
 80015ce:	2b00      	cmp	r3, #0
 80015d0:	bfbb      	ittet	lt
 80015d2:	425b      	neglt	r3, r3
 80015d4:	f042 0202 	orrlt.w	r2, r2, #2
 80015d8:	9307      	strge	r3, [sp, #28]
 80015da:	9307      	strlt	r3, [sp, #28]
 80015dc:	bfb8      	it	lt
 80015de:	9204      	strlt	r2, [sp, #16]
 80015e0:	7823      	ldrb	r3, [r4, #0]
 80015e2:	2b2e      	cmp	r3, #46	@ 0x2e
 80015e4:	d10a      	bne.n	80015fc <_svfiprintf_r+0x130>
 80015e6:	7863      	ldrb	r3, [r4, #1]
 80015e8:	2b2a      	cmp	r3, #42	@ 0x2a
 80015ea:	d132      	bne.n	8001652 <_svfiprintf_r+0x186>
 80015ec:	9b03      	ldr	r3, [sp, #12]
 80015ee:	1d1a      	adds	r2, r3, #4
 80015f0:	681b      	ldr	r3, [r3, #0]
 80015f2:	9203      	str	r2, [sp, #12]
 80015f4:	ea43 73e3 	orr.w	r3, r3, r3, asr #31
 80015f8:	3402      	adds	r4, #2
 80015fa:	9305      	str	r3, [sp, #20]
 80015fc:	f8df a0b4 	ldr.w	sl, [pc, #180]	@ 80016b4 <_svfiprintf_r+0x1e8>
 8001600:	7821      	ldrb	r1, [r4, #0]
 8001602:	2203      	movs	r2, #3
 8001604:	4650      	mov	r0, sl
 8001606:	f7fe fdeb 	bl	80001e0 <memchr>
 800160a:	b138      	cbz	r0, 800161c <_svfiprintf_r+0x150>
 800160c:	9b04      	ldr	r3, [sp, #16]
 800160e:	eba0 000a 	sub.w	r0, r0, sl
 8001612:	2240      	movs	r2, #64	@ 0x40
 8001614:	4082      	lsls	r2, r0
 8001616:	4313      	orrs	r3, r2
 8001618:	3401      	adds	r4, #1
 800161a:	9304      	str	r3, [sp, #16]
 800161c:	f814 1b01 	ldrb.w	r1, [r4], #1
 8001620:	4825      	ldr	r0, [pc, #148]	@ (80016b8 <_svfiprintf_r+0x1ec>)
 8001622:	f88d 1028 	strb.w	r1, [sp, #40]	@ 0x28
 8001626:	2206      	movs	r2, #6
 8001628:	f7fe fdda 	bl	80001e0 <memchr>
 800162c:	2800      	cmp	r0, #0
 800162e:	d036      	beq.n	800169e <_svfiprintf_r+0x1d2>
 8001630:	4b22      	ldr	r3, [pc, #136]	@ (80016bc <_svfiprintf_r+0x1f0>)
 8001632:	bb1b      	cbnz	r3, 800167c <_svfiprintf_r+0x1b0>
 8001634:	9b03      	ldr	r3, [sp, #12]
 8001636:	3307      	adds	r3, #7
 8001638:	f023 0307 	bic.w	r3, r3, #7
 800163c:	3308      	adds	r3, #8
 800163e:	9303      	str	r3, [sp, #12]
 8001640:	9b09      	ldr	r3, [sp, #36]	@ 0x24
 8001642:	4433      	add	r3, r6
 8001644:	9309      	str	r3, [sp, #36]	@ 0x24
 8001646:	e76a      	b.n	800151e <_svfiprintf_r+0x52>
 8001648:	fb0c 3202 	mla	r2, ip, r2, r3
 800164c:	460c      	mov	r4, r1
 800164e:	2001      	movs	r0, #1
 8001650:	e7a8      	b.n	80015a4 <_svfiprintf_r+0xd8>
 8001652:	2300      	movs	r3, #0
 8001654:	3401      	adds	r4, #1
 8001656:	9305      	str	r3, [sp, #20]
 8001658:	4619      	mov	r1, r3
 800165a:	f04f 0c0a 	mov.w	ip, #10
 800165e:	4620      	mov	r0, r4
 8001660:	f810 2b01 	ldrb.w	r2, [r0], #1
 8001664:	3a30      	subs	r2, #48	@ 0x30
 8001666:	2a09      	cmp	r2, #9
 8001668:	d903      	bls.n	8001672 <_svfiprintf_r+0x1a6>
 800166a:	2b00      	cmp	r3, #0
 800166c:	d0c6      	beq.n	80015fc <_svfiprintf_r+0x130>
 800166e:	9105      	str	r1, [sp, #20]
 8001670:	e7c4      	b.n	80015fc <_svfiprintf_r+0x130>
 8001672:	fb0c 2101 	mla	r1, ip, r1, r2
 8001676:	4604      	mov	r4, r0
 8001678:	2301      	movs	r3, #1
 800167a:	e7f0      	b.n	800165e <_svfiprintf_r+0x192>
 800167c:	ab03      	add	r3, sp, #12
 800167e:	9300      	str	r3, [sp, #0]
 8001680:	462a      	mov	r2, r5
 8001682:	4b0f      	ldr	r3, [pc, #60]	@ (80016c0 <_svfiprintf_r+0x1f4>)
 8001684:	a904      	add	r1, sp, #16
 8001686:	4638      	mov	r0, r7
 8001688:	f3af 8000 	nop.w
 800168c:	1c42      	adds	r2, r0, #1
 800168e:	4606      	mov	r6, r0
 8001690:	d1d6      	bne.n	8001640 <_svfiprintf_r+0x174>
 8001692:	89ab      	ldrh	r3, [r5, #12]
 8001694:	065b      	lsls	r3, r3, #25
 8001696:	f53f af2d 	bmi.w	80014f4 <_svfiprintf_r+0x28>
 800169a:	9809      	ldr	r0, [sp, #36]	@ 0x24
 800169c:	e72c      	b.n	80014f8 <_svfiprintf_r+0x2c>
 800169e:	ab03      	add	r3, sp, #12
 80016a0:	9300      	str	r3, [sp, #0]
 80016a2:	462a      	mov	r2, r5
 80016a4:	4b06      	ldr	r3, [pc, #24]	@ (80016c0 <_svfiprintf_r+0x1f4>)
 80016a6:	a904      	add	r1, sp, #16
 80016a8:	4638      	mov	r0, r7
 80016aa:	f000 f879 	bl	80017a0 <_printf_i>
 80016ae:	e7ed      	b.n	800168c <_svfiprintf_r+0x1c0>
 80016b0:	08001b38 	.word	0x08001b38
 80016b4:	08001b3e 	.word	0x08001b3e
 80016b8:	08001b42 	.word	0x08001b42
 80016bc:	00000000 	.word	0x00000000
 80016c0:	08001415 	.word	0x08001415

080016c4 <_printf_common>:
 80016c4:	e92d 47f0 	stmdb	sp!, {r4, r5, r6, r7, r8, r9, sl, lr}
 80016c8:	4616      	mov	r6, r2
 80016ca:	4698      	mov	r8, r3
 80016cc:	688a      	ldr	r2, [r1, #8]
 80016ce:	690b      	ldr	r3, [r1, #16]
 80016d0:	f8dd 9020 	ldr.w	r9, [sp, #32]
 80016d4:	4293      	cmp	r3, r2
 80016d6:	bfb8      	it	lt
 80016d8:	4613      	movlt	r3, r2
 80016da:	6033      	str	r3, [r6, #0]
 80016dc:	f891 2043 	ldrb.w	r2, [r1, #67]	@ 0x43
 80016e0:	4607      	mov	r7, r0
 80016e2:	460c      	mov	r4, r1
 80016e4:	b10a      	cbz	r2, 80016ea <_printf_common+0x26>
 80016e6:	3301      	adds	r3, #1
 80016e8:	6033      	str	r3, [r6, #0]
 80016ea:	6823      	ldr	r3, [r4, #0]
 80016ec:	0699      	lsls	r1, r3, #26
 80016ee:	bf42      	ittt	mi
 80016f0:	6833      	ldrmi	r3, [r6, #0]
 80016f2:	3302      	addmi	r3, #2
 80016f4:	6033      	strmi	r3, [r6, #0]
 80016f6:	6825      	ldr	r5, [r4, #0]
 80016f8:	f015 0506 	ands.w	r5, r5, #6
 80016fc:	d106      	bne.n	800170c <_printf_common+0x48>
 80016fe:	f104 0a19 	add.w	sl, r4, #25
 8001702:	68e3      	ldr	r3, [r4, #12]
 8001704:	6832      	ldr	r2, [r6, #0]
 8001706:	1a9b      	subs	r3, r3, r2
 8001708:	42ab      	cmp	r3, r5
 800170a:	dc26      	bgt.n	800175a <_printf_common+0x96>
 800170c:	f894 3043 	ldrb.w	r3, [r4, #67]	@ 0x43
 8001710:	6822      	ldr	r2, [r4, #0]
 8001712:	3b00      	subs	r3, #0
 8001714:	bf18      	it	ne
 8001716:	2301      	movne	r3, #1
 8001718:	0692      	lsls	r2, r2, #26
 800171a:	d42b      	bmi.n	8001774 <_printf_common+0xb0>
 800171c:	f104 0243 	add.w	r2, r4, #67	@ 0x43
 8001720:	4641      	mov	r1, r8
 8001722:	4638      	mov	r0, r7
 8001724:	47c8      	blx	r9
 8001726:	3001      	adds	r0, #1
 8001728:	d01e      	beq.n	8001768 <_printf_common+0xa4>
 800172a:	6823      	ldr	r3, [r4, #0]
 800172c:	6922      	ldr	r2, [r4, #16]
 800172e:	f003 0306 	and.w	r3, r3, #6
 8001732:	2b04      	cmp	r3, #4
 8001734:	bf02      	ittt	eq
 8001736:	68e5      	ldreq	r5, [r4, #12]
 8001738:	6833      	ldreq	r3, [r6, #0]
 800173a:	1aed      	subeq	r5, r5, r3
 800173c:	68a3      	ldr	r3, [r4, #8]
 800173e:	bf0c      	ite	eq
 8001740:	ea25 75e5 	biceq.w	r5, r5, r5, asr #31
 8001744:	2500      	movne	r5, #0
 8001746:	4293      	cmp	r3, r2
 8001748:	bfc4      	itt	gt
 800174a:	1a9b      	subgt	r3, r3, r2
 800174c:	18ed      	addgt	r5, r5, r3
 800174e:	2600      	movs	r6, #0
 8001750:	341a      	adds	r4, #26
 8001752:	42b5      	cmp	r5, r6
 8001754:	d11a      	bne.n	800178c <_printf_common+0xc8>
 8001756:	2000      	movs	r0, #0
 8001758:	e008      	b.n	800176c <_printf_common+0xa8>
 800175a:	2301      	movs	r3, #1
 800175c:	4652      	mov	r2, sl
 800175e:	4641      	mov	r1, r8
 8001760:	4638      	mov	r0, r7
 8001762:	47c8      	blx	r9
 8001764:	3001      	adds	r0, #1
 8001766:	d103      	bne.n	8001770 <_printf_common+0xac>
 8001768:	f04f 30ff 	mov.w	r0, #4294967295
 800176c:	e8bd 87f0 	ldmia.w	sp!, {r4, r5, r6, r7, r8, r9, sl, pc}
 8001770:	3501      	adds	r5, #1
 8001772:	e7c6      	b.n	8001702 <_printf_common+0x3e>
 8001774:	18e1      	adds	r1, r4, r3
 8001776:	1c5a      	adds	r2, r3, #1
 8001778:	2030      	movs	r0, #48	@ 0x30
 800177a:	f881 0043 	strb.w	r0, [r1, #67]	@ 0x43
 800177e:	4422      	add	r2, r4
 8001780:	f894 1045 	ldrb.w	r1, [r4, #69]	@ 0x45
 8001784:	f882 1043 	strb.w	r1, [r2, #67]	@ 0x43
 8001788:	3302      	adds	r3, #2
 800178a:	e7c7      	b.n	800171c <_printf_common+0x58>
 800178c:	2301      	movs	r3, #1
 800178e:	4622      	mov	r2, r4
 8001790:	4641      	mov	r1, r8
 8001792:	4638      	mov	r0, r7
 8001794:	47c8      	blx	r9
 8001796:	3001      	adds	r0, #1
 8001798:	d0e6      	beq.n	8001768 <_printf_common+0xa4>
 800179a:	3601      	adds	r6, #1
 800179c:	e7d9      	b.n	8001752 <_printf_common+0x8e>
	...

080017a0 <_printf_i>:
 80017a0:	e92d 47ff 	stmdb	sp!, {r0, r1, r2, r3, r4, r5, r6, r7, r8, r9, sl, lr}
 80017a4:	7e0f      	ldrb	r7, [r1, #24]
 80017a6:	9e0c      	ldr	r6, [sp, #48]	@ 0x30
 80017a8:	2f78      	cmp	r7, #120	@ 0x78
 80017aa:	4691      	mov	r9, r2
 80017ac:	4680      	mov	r8, r0
 80017ae:	460c      	mov	r4, r1
 80017b0:	469a      	mov	sl, r3
 80017b2:	f101 0243 	add.w	r2, r1, #67	@ 0x43
 80017b6:	d807      	bhi.n	80017c8 <_printf_i+0x28>
 80017b8:	2f62      	cmp	r7, #98	@ 0x62
 80017ba:	d80a      	bhi.n	80017d2 <_printf_i+0x32>
 80017bc:	2f00      	cmp	r7, #0
 80017be:	f000 80d1 	beq.w	8001964 <_printf_i+0x1c4>
 80017c2:	2f58      	cmp	r7, #88	@ 0x58
 80017c4:	f000 80b8 	beq.w	8001938 <_printf_i+0x198>
 80017c8:	f104 0642 	add.w	r6, r4, #66	@ 0x42
 80017cc:	f884 7042 	strb.w	r7, [r4, #66]	@ 0x42
 80017d0:	e03a      	b.n	8001848 <_printf_i+0xa8>
 80017d2:	f1a7 0363 	sub.w	r3, r7, #99	@ 0x63
 80017d6:	2b15      	cmp	r3, #21
 80017d8:	d8f6      	bhi.n	80017c8 <_printf_i+0x28>
 80017da:	a101      	add	r1, pc, #4	@ (adr r1, 80017e0 <_printf_i+0x40>)
 80017dc:	f851 f023 	ldr.w	pc, [r1, r3, lsl #2]
 80017e0:	08001839 	.word	0x08001839
 80017e4:	0800184d 	.word	0x0800184d
 80017e8:	080017c9 	.word	0x080017c9
 80017ec:	080017c9 	.word	0x080017c9
 80017f0:	080017c9 	.word	0x080017c9
 80017f4:	080017c9 	.word	0x080017c9
 80017f8:	0800184d 	.word	0x0800184d
 80017fc:	080017c9 	.word	0x080017c9
 8001800:	080017c9 	.word	0x080017c9
 8001804:	080017c9 	.word	0x080017c9
 8001808:	080017c9 	.word	0x080017c9
 800180c:	0800194b 	.word	0x0800194b
 8001810:	08001877 	.word	0x08001877
 8001814:	08001905 	.word	0x08001905
 8001818:	080017c9 	.word	0x080017c9
 800181c:	080017c9 	.word	0x080017c9
 8001820:	0800196d 	.word	0x0800196d
 8001824:	080017c9 	.word	0x080017c9
 8001828:	08001877 	.word	0x08001877
 800182c:	080017c9 	.word	0x080017c9
 8001830:	080017c9 	.word	0x080017c9
 8001834:	0800190d 	.word	0x0800190d
 8001838:	6833      	ldr	r3, [r6, #0]
 800183a:	1d1a      	adds	r2, r3, #4
 800183c:	681b      	ldr	r3, [r3, #0]
 800183e:	6032      	str	r2, [r6, #0]
 8001840:	f104 0642 	add.w	r6, r4, #66	@ 0x42
 8001844:	f884 3042 	strb.w	r3, [r4, #66]	@ 0x42
 8001848:	2301      	movs	r3, #1
 800184a:	e09c      	b.n	8001986 <_printf_i+0x1e6>
 800184c:	6833      	ldr	r3, [r6, #0]
 800184e:	6820      	ldr	r0, [r4, #0]
 8001850:	1d19      	adds	r1, r3, #4
 8001852:	6031      	str	r1, [r6, #0]
 8001854:	0606      	lsls	r6, r0, #24
 8001856:	d501      	bpl.n	800185c <_printf_i+0xbc>
 8001858:	681d      	ldr	r5, [r3, #0]
 800185a:	e003      	b.n	8001864 <_printf_i+0xc4>
 800185c:	0645      	lsls	r5, r0, #25
 800185e:	d5fb      	bpl.n	8001858 <_printf_i+0xb8>
 8001860:	f9b3 5000 	ldrsh.w	r5, [r3]
 8001864:	2d00      	cmp	r5, #0
 8001866:	da03      	bge.n	8001870 <_printf_i+0xd0>
 8001868:	232d      	movs	r3, #45	@ 0x2d
 800186a:	426d      	negs	r5, r5
 800186c:	f884 3043 	strb.w	r3, [r4, #67]	@ 0x43
 8001870:	4858      	ldr	r0, [pc, #352]	@ (80019d4 <_printf_i+0x234>)
 8001872:	230a      	movs	r3, #10
 8001874:	e011      	b.n	800189a <_printf_i+0xfa>
 8001876:	6821      	ldr	r1, [r4, #0]
 8001878:	6833      	ldr	r3, [r6, #0]
 800187a:	0608      	lsls	r0, r1, #24
 800187c:	f853 5b04 	ldr.w	r5, [r3], #4
 8001880:	d402      	bmi.n	8001888 <_printf_i+0xe8>
 8001882:	0649      	lsls	r1, r1, #25
 8001884:	bf48      	it	mi
 8001886:	b2ad      	uxthmi	r5, r5
 8001888:	2f6f      	cmp	r7, #111	@ 0x6f
 800188a:	4852      	ldr	r0, [pc, #328]	@ (80019d4 <_printf_i+0x234>)
 800188c:	6033      	str	r3, [r6, #0]
 800188e:	bf14      	ite	ne
 8001890:	230a      	movne	r3, #10
 8001892:	2308      	moveq	r3, #8
 8001894:	2100      	movs	r1, #0
 8001896:	f884 1043 	strb.w	r1, [r4, #67]	@ 0x43
 800189a:	6866      	ldr	r6, [r4, #4]
 800189c:	60a6      	str	r6, [r4, #8]
 800189e:	2e00      	cmp	r6, #0
 80018a0:	db05      	blt.n	80018ae <_printf_i+0x10e>
 80018a2:	6821      	ldr	r1, [r4, #0]
 80018a4:	432e      	orrs	r6, r5
 80018a6:	f021 0104 	bic.w	r1, r1, #4
 80018aa:	6021      	str	r1, [r4, #0]
 80018ac:	d04b      	beq.n	8001946 <_printf_i+0x1a6>
 80018ae:	4616      	mov	r6, r2
 80018b0:	fbb5 f1f3 	udiv	r1, r5, r3
 80018b4:	fb03 5711 	mls	r7, r3, r1, r5
 80018b8:	5dc7      	ldrb	r7, [r0, r7]
 80018ba:	f806 7d01 	strb.w	r7, [r6, #-1]!
 80018be:	462f      	mov	r7, r5
 80018c0:	42bb      	cmp	r3, r7
 80018c2:	460d      	mov	r5, r1
 80018c4:	d9f4      	bls.n	80018b0 <_printf_i+0x110>
 80018c6:	2b08      	cmp	r3, #8
 80018c8:	d10b      	bne.n	80018e2 <_printf_i+0x142>
 80018ca:	6823      	ldr	r3, [r4, #0]
 80018cc:	07df      	lsls	r7, r3, #31
 80018ce:	d508      	bpl.n	80018e2 <_printf_i+0x142>
 80018d0:	6923      	ldr	r3, [r4, #16]
 80018d2:	6861      	ldr	r1, [r4, #4]
 80018d4:	4299      	cmp	r1, r3
 80018d6:	bfde      	ittt	le
 80018d8:	2330      	movle	r3, #48	@ 0x30
 80018da:	f806 3c01 	strble.w	r3, [r6, #-1]
 80018de:	f106 36ff 	addle.w	r6, r6, #4294967295
 80018e2:	1b92      	subs	r2, r2, r6
 80018e4:	6122      	str	r2, [r4, #16]
 80018e6:	f8cd a000 	str.w	sl, [sp]
 80018ea:	464b      	mov	r3, r9
 80018ec:	aa03      	add	r2, sp, #12
 80018ee:	4621      	mov	r1, r4
 80018f0:	4640      	mov	r0, r8
 80018f2:	f7ff fee7 	bl	80016c4 <_printf_common>
 80018f6:	3001      	adds	r0, #1
 80018f8:	d14a      	bne.n	8001990 <_printf_i+0x1f0>
 80018fa:	f04f 30ff 	mov.w	r0, #4294967295
 80018fe:	b004      	add	sp, #16
 8001900:	e8bd 87f0 	ldmia.w	sp!, {r4, r5, r6, r7, r8, r9, sl, pc}
 8001904:	6823      	ldr	r3, [r4, #0]
 8001906:	f043 0320 	orr.w	r3, r3, #32
 800190a:	6023      	str	r3, [r4, #0]
 800190c:	4832      	ldr	r0, [pc, #200]	@ (80019d8 <_printf_i+0x238>)
 800190e:	2778      	movs	r7, #120	@ 0x78
 8001910:	f884 7045 	strb.w	r7, [r4, #69]	@ 0x45
 8001914:	6823      	ldr	r3, [r4, #0]
 8001916:	6831      	ldr	r1, [r6, #0]
 8001918:	061f      	lsls	r7, r3, #24
 800191a:	f851 5b04 	ldr.w	r5, [r1], #4
 800191e:	d402      	bmi.n	8001926 <_printf_i+0x186>
 8001920:	065f      	lsls	r7, r3, #25
 8001922:	bf48      	it	mi
 8001924:	b2ad      	uxthmi	r5, r5
 8001926:	6031      	str	r1, [r6, #0]
 8001928:	07d9      	lsls	r1, r3, #31
 800192a:	bf44      	itt	mi
 800192c:	f043 0320 	orrmi.w	r3, r3, #32
 8001930:	6023      	strmi	r3, [r4, #0]
 8001932:	b11d      	cbz	r5, 800193c <_printf_i+0x19c>
 8001934:	2310      	movs	r3, #16
 8001936:	e7ad      	b.n	8001894 <_printf_i+0xf4>
 8001938:	4826      	ldr	r0, [pc, #152]	@ (80019d4 <_printf_i+0x234>)
 800193a:	e7e9      	b.n	8001910 <_printf_i+0x170>
 800193c:	6823      	ldr	r3, [r4, #0]
 800193e:	f023 0320 	bic.w	r3, r3, #32
 8001942:	6023      	str	r3, [r4, #0]
 8001944:	e7f6      	b.n	8001934 <_printf_i+0x194>
 8001946:	4616      	mov	r6, r2
 8001948:	e7bd      	b.n	80018c6 <_printf_i+0x126>
 800194a:	6833      	ldr	r3, [r6, #0]
 800194c:	6825      	ldr	r5, [r4, #0]
 800194e:	6961      	ldr	r1, [r4, #20]
 8001950:	1d18      	adds	r0, r3, #4
 8001952:	6030      	str	r0, [r6, #0]
 8001954:	062e      	lsls	r6, r5, #24
 8001956:	681b      	ldr	r3, [r3, #0]
 8001958:	d501      	bpl.n	800195e <_printf_i+0x1be>
 800195a:	6019      	str	r1, [r3, #0]
 800195c:	e002      	b.n	8001964 <_printf_i+0x1c4>
 800195e:	0668      	lsls	r0, r5, #25
 8001960:	d5fb      	bpl.n	800195a <_printf_i+0x1ba>
 8001962:	8019      	strh	r1, [r3, #0]
 8001964:	2300      	movs	r3, #0
 8001966:	6123      	str	r3, [r4, #16]
 8001968:	4616      	mov	r6, r2
 800196a:	e7bc      	b.n	80018e6 <_printf_i+0x146>
 800196c:	6833      	ldr	r3, [r6, #0]
 800196e:	1d1a      	adds	r2, r3, #4
 8001970:	6032      	str	r2, [r6, #0]
 8001972:	681e      	ldr	r6, [r3, #0]
 8001974:	6862      	ldr	r2, [r4, #4]
 8001976:	2100      	movs	r1, #0
 8001978:	4630      	mov	r0, r6
 800197a:	f7fe fc31 	bl	80001e0 <memchr>
 800197e:	b108      	cbz	r0, 8001984 <_printf_i+0x1e4>
 8001980:	1b80      	subs	r0, r0, r6
 8001982:	6060      	str	r0, [r4, #4]
 8001984:	6863      	ldr	r3, [r4, #4]
 8001986:	6123      	str	r3, [r4, #16]
 8001988:	2300      	movs	r3, #0
 800198a:	f884 3043 	strb.w	r3, [r4, #67]	@ 0x43
 800198e:	e7aa      	b.n	80018e6 <_printf_i+0x146>
 8001990:	6923      	ldr	r3, [r4, #16]
 8001992:	4632      	mov	r2, r6
 8001994:	4649      	mov	r1, r9
 8001996:	4640      	mov	r0, r8
 8001998:	47d0      	blx	sl
 800199a:	3001      	adds	r0, #1
 800199c:	d0ad      	beq.n	80018fa <_printf_i+0x15a>
 800199e:	6823      	ldr	r3, [r4, #0]
 80019a0:	079b      	lsls	r3, r3, #30
 80019a2:	d413      	bmi.n	80019cc <_printf_i+0x22c>
 80019a4:	68e0      	ldr	r0, [r4, #12]
 80019a6:	9b03      	ldr	r3, [sp, #12]
 80019a8:	4298      	cmp	r0, r3
 80019aa:	bfb8      	it	lt
 80019ac:	4618      	movlt	r0, r3
 80019ae:	e7a6      	b.n	80018fe <_printf_i+0x15e>
 80019b0:	2301      	movs	r3, #1
 80019b2:	4632      	mov	r2, r6
 80019b4:	4649      	mov	r1, r9
 80019b6:	4640      	mov	r0, r8
 80019b8:	47d0      	blx	sl
 80019ba:	3001      	adds	r0, #1
 80019bc:	d09d      	beq.n	80018fa <_printf_i+0x15a>
 80019be:	3501      	adds	r5, #1
 80019c0:	68e3      	ldr	r3, [r4, #12]
 80019c2:	9903      	ldr	r1, [sp, #12]
 80019c4:	1a5b      	subs	r3, r3, r1
 80019c6:	42ab      	cmp	r3, r5
 80019c8:	dcf2      	bgt.n	80019b0 <_printf_i+0x210>
 80019ca:	e7eb      	b.n	80019a4 <_printf_i+0x204>
 80019cc:	2500      	movs	r5, #0
 80019ce:	f104 0619 	add.w	r6, r4, #25
 80019d2:	e7f5      	b.n	80019c0 <_printf_i+0x220>
 80019d4:	08001b49 	.word	0x08001b49
 80019d8:	08001b5a 	.word	0x08001b5a

080019dc <memmove>:
 80019dc:	4288      	cmp	r0, r1
 80019de:	b510      	push	{r4, lr}
 80019e0:	eb01 0402 	add.w	r4, r1, r2
 80019e4:	d902      	bls.n	80019ec <memmove+0x10>
 80019e6:	4284      	cmp	r4, r0
 80019e8:	4623      	mov	r3, r4
 80019ea:	d807      	bhi.n	80019fc <memmove+0x20>
 80019ec:	1e43      	subs	r3, r0, #1
 80019ee:	42a1      	cmp	r1, r4
 80019f0:	d008      	beq.n	8001a04 <memmove+0x28>
 80019f2:	f811 2b01 	ldrb.w	r2, [r1], #1
 80019f6:	f803 2f01 	strb.w	r2, [r3, #1]!
 80019fa:	e7f8      	b.n	80019ee <memmove+0x12>
 80019fc:	4402      	add	r2, r0
 80019fe:	4601      	mov	r1, r0
 8001a00:	428a      	cmp	r2, r1
 8001a02:	d100      	bne.n	8001a06 <memmove+0x2a>
 8001a04:	bd10      	pop	{r4, pc}
 8001a06:	f813 4d01 	ldrb.w	r4, [r3, #-1]!
 8001a0a:	f802 4d01 	strb.w	r4, [r2, #-1]!
 8001a0e:	e7f7      	b.n	8001a00 <memmove+0x24>

08001a10 <_sbrk_r>:
 8001a10:	b538      	push	{r3, r4, r5, lr}
 8001a12:	4d06      	ldr	r5, [pc, #24]	@ (8001a2c <_sbrk_r+0x1c>)
 8001a14:	2300      	movs	r3, #0
 8001a16:	4604      	mov	r4, r0
 8001a18:	4608      	mov	r0, r1
 8001a1a:	602b      	str	r3, [r5, #0]
 8001a1c:	f7fe fede 	bl	80007dc <_sbrk>
 8001a20:	1c43      	adds	r3, r0, #1
 8001a22:	d102      	bne.n	8001a2a <_sbrk_r+0x1a>
 8001a24:	682b      	ldr	r3, [r5, #0]
 8001a26:	b103      	cbz	r3, 8001a2a <_sbrk_r+0x1a>
 8001a28:	6023      	str	r3, [r4, #0]
 8001a2a:	bd38      	pop	{r3, r4, r5, pc}
 8001a2c:	200001d4 	.word	0x200001d4

08001a30 <memcpy>:
 8001a30:	440a      	add	r2, r1
 8001a32:	4291      	cmp	r1, r2
 8001a34:	f100 33ff 	add.w	r3, r0, #4294967295
 8001a38:	d100      	bne.n	8001a3c <memcpy+0xc>
 8001a3a:	4770      	bx	lr
 8001a3c:	b510      	push	{r4, lr}
 8001a3e:	f811 4b01 	ldrb.w	r4, [r1], #1
 8001a42:	f803 4f01 	strb.w	r4, [r3, #1]!
 8001a46:	4291      	cmp	r1, r2
 8001a48:	d1f9      	bne.n	8001a3e <memcpy+0xe>
 8001a4a:	bd10      	pop	{r4, pc}

08001a4c <_realloc_r>:
 8001a4c:	e92d 41f0 	stmdb	sp!, {r4, r5, r6, r7, r8, lr}
 8001a50:	4607      	mov	r7, r0
 8001a52:	4614      	mov	r4, r2
 8001a54:	460d      	mov	r5, r1
 8001a56:	b921      	cbnz	r1, 8001a62 <_realloc_r+0x16>
 8001a58:	e8bd 41f0 	ldmia.w	sp!, {r4, r5, r6, r7, r8, lr}
 8001a5c:	4611      	mov	r1, r2
 8001a5e:	f7ff bc4d 	b.w	80012fc <_malloc_r>
 8001a62:	b92a      	cbnz	r2, 8001a70 <_realloc_r+0x24>
 8001a64:	f7ff fbde 	bl	8001224 <_free_r>
 8001a68:	4625      	mov	r5, r4
 8001a6a:	4628      	mov	r0, r5
 8001a6c:	e8bd 81f0 	ldmia.w	sp!, {r4, r5, r6, r7, r8, pc}
 8001a70:	f000 f81a 	bl	8001aa8 <_malloc_usable_size_r>
 8001a74:	4284      	cmp	r4, r0
 8001a76:	4606      	mov	r6, r0
 8001a78:	d802      	bhi.n	8001a80 <_realloc_r+0x34>
 8001a7a:	ebb4 0f50 	cmp.w	r4, r0, lsr #1
 8001a7e:	d8f4      	bhi.n	8001a6a <_realloc_r+0x1e>
 8001a80:	4621      	mov	r1, r4
 8001a82:	4638      	mov	r0, r7
 8001a84:	f7ff fc3a 	bl	80012fc <_malloc_r>
 8001a88:	4680      	mov	r8, r0
 8001a8a:	b908      	cbnz	r0, 8001a90 <_realloc_r+0x44>
 8001a8c:	4645      	mov	r5, r8
 8001a8e:	e7ec      	b.n	8001a6a <_realloc_r+0x1e>
 8001a90:	42b4      	cmp	r4, r6
 8001a92:	4622      	mov	r2, r4
 8001a94:	4629      	mov	r1, r5
 8001a96:	bf28      	it	cs
 8001a98:	4632      	movcs	r2, r6
 8001a9a:	f7ff ffc9 	bl	8001a30 <memcpy>
 8001a9e:	4629      	mov	r1, r5
 8001aa0:	4638      	mov	r0, r7
 8001aa2:	f7ff fbbf 	bl	8001224 <_free_r>
 8001aa6:	e7f1      	b.n	8001a8c <_realloc_r+0x40>

08001aa8 <_malloc_usable_size_r>:
 8001aa8:	f851 3c04 	ldr.w	r3, [r1, #-4]
 8001aac:	1f18      	subs	r0, r3, #4
 8001aae:	2b00      	cmp	r3, #0
 8001ab0:	bfbc      	itt	lt
 8001ab2:	580b      	ldrlt	r3, [r1, r0]
 8001ab4:	18c0      	addlt	r0, r0, r3
 8001ab6:	4770      	bx	lr

08001ab8 <_init>:
 8001ab8:	b5f8      	push	{r3, r4, r5, r6, r7, lr}
 8001aba:	bf00      	nop
 8001abc:	bcf8      	pop	{r3, r4, r5, r6, r7}
 8001abe:	bc08      	pop	{r3}
 8001ac0:	469e      	mov	lr, r3
 8001ac2:	4770      	bx	lr

08001ac4 <_fini>:
 8001ac4:	b5f8      	push	{r3, r4, r5, r6, r7, lr}
 8001ac6:	bf00      	nop
 8001ac8:	bcf8      	pop	{r3, r4, r5, r6, r7}
 8001aca:	bc08      	pop	{r3}
 8001acc:	469e      	mov	lr, r3
 8001ace:	4770      	bx	lr
